(dp1
S'post'
p2
(dp3
S'length'
p4
I32768
sS'unique'
p5
I00
sS'sortable'
p6
I3
sS'sql'
p7
S'TEXT NOT NULL'
p8
sS'notnull'
p9
I01
sS'type'
p10
S'text'
p11
ssS'id'
p12
(dp13
g4
I512
sg5
I00
sg6
I1
sg7
S'INTEGER PRIMARY KEY AUTOINCREMENT'
p14
sg9
I00
sg10
g12
ssS'title'
p15
(dp16
g4
I512
sg5
I00
sg6
I2
sg7
S'CHAR(512) NOT NULL'
p17
sg9
I01
sg10
S'string'
p18
ss.