(dp1
S'output'
p2
S''
sS'layer'
p3
S'Framework'
p4
sS'code'
p5
S''
sS'snapshot'
p6
(dp7
sS'traceback'
p8
S'Traceback (most recent call last):\n  File "/Users/peterjeffryes/Documents/real-python/web2py/gluon/main.py", line 446, in wsgibase\n    serve_controller(request, response, session)\n  File "/Users/peterjeffryes/Documents/real-python/web2py/gluon/main.py", line 183, in serve_controller\n    page = run_view_in(response._view_environment)\n  File "/Users/peterjeffryes/Documents/real-python/web2py/gluon/compileapp.py", line 712, in run_view_in\n    context=environment)\n  File "/Users/peterjeffryes/Documents/real-python/web2py/gluon/template.py", line 792, in parse_template\n    return str(TemplateParser(text, context=context, path=path, lexers=lexers, delimiters=delimiters))\n  File "/Users/peterjeffryes/Documents/real-python/web2py/gluon/template.py", line 314, in __init__\n    self.parse(text)\n  File "/Users/peterjeffryes/Documents/real-python/web2py/gluon/template.py", line 760, in parse\n    self.extend(extend)\n  File "/Users/peterjeffryes/Documents/real-python/web2py/gluon/template.py", line 489, in extend\n    _super_nodes=super_nodes)\n  File "/Users/peterjeffryes/Documents/real-python/web2py/gluon/template.py", line 314, in __init__\n    self.parse(text)\n  File "/Users/peterjeffryes/Documents/real-python/web2py/gluon/template.py", line 760, in parse\n    self.extend(extend)\n  File "/Users/peterjeffryes/Documents/real-python/web2py/gluon/template.py", line 489, in extend\n    _super_nodes=super_nodes)\n  File "/Users/peterjeffryes/Documents/real-python/web2py/gluon/template.py", line 314, in __init__\n    self.parse(text)\n  File "/Users/peterjeffryes/Documents/real-python/web2py/gluon/template.py", line 760, in parse\n    self.extend(extend)\n  File "/Users/peterjeffryes/Documents/real-python/web2py/gluon/template.py", line 489, in extend\n    _super_nodes=super_nodes)\n  File "/Users/peterjeffryes/Documents/real-python/web2py/gluon/template.py", line 314, in __init__\n    self.parse(text)\n  File "/Users/peterjeffryes/Documents/real-python/web2py/gluon/template.py", line 760, in parse\n    self.extend(extend)\n  File "/Users/peterjeffryes/Documents/real-python/web2py/gluon/template.py", line 489, in extend\n    _super_nodes=super_nodes)\n  File "/Users/peterjeffryes/Documents/real-python/web2py/gluon/template.py", line 314, in __init__\n    self.parse(text)\n  File "/Users/peterjeffryes/Documents/real-python/web2py/gluon/template.py", line 760, in parse\n    self.extend(extend)\n  File "/Users/peterjeffryes/Documents/real-python/web2py/gluon/template.py", line 489, in extend\n    _super_nodes=super_nodes)\n  File "/Users/peterjeffryes/Documents/real-python/web2py/gluon/template.py", line 314, in __init__\n    self.parse(text)\n  File "/Users/peterjeffryes/Documents/real-python/web2py/gluon/template.py", line 760, in parse\n    self.extend(extend)\n  File "/Users/peterjeffryes/Documents/real-python/web2py/gluon/template.py", line 489, in extend\n    _super_nodes=super_nodes)\n  File "/Users/peterjeffryes/Documents/real-python/web2py/gluon/template.py", line 314, in __init__\n    self.parse(text)\n  File "/Users/peterjeffryes/Documents/real-python/web2py/gluon/template.py", line 760, in parse\n    self.extend(extend)\n  File "/Users/peterjeffryes/Documents/real-python/web2py/gluon/template.py", line 489, in extend\n    _super_nodes=super_nodes)\n  File "/Users/peterjeffryes/Documents/real-python/web2py/gluon/template.py", line 314, in __init__\n    self.parse(text)\n  File "/Users/peterjeffryes/Documents/real-python/web2py/gluon/template.py", line 760, in parse\n    self.extend(extend)\n  File "/Users/peterjeffryes/Documents/real-python/web2py/gluon/template.py", line 489, in extend\n    _super_nodes=super_nodes)\n  File "/Users/peterjeffryes/Documents/real-python/web2py/gluon/template.py", line 314, in __init__\n    self.parse(text)\n  File "/Users/peterjeffryes/Documents/real-python/web2py/gluon/template.py", line 760, in parse\n    self.extend(extend)\n  File "/Users/peterjeffryes/Documents/real-python/web2py/gluon/template.py", line 489, in extend\n    _super_nodes=super_nodes)\n  File "/Users/peterjeffryes/Documents/real-python/web2py/gluon/template.py", line 314, in __init__\n    self.parse(text)\n  File "/Users/peterjeffryes/Documents/real-python/web2py/gluon/template.py", line 760, in parse\n    self.extend(extend)\n  File "/Users/peterjeffryes/Documents/real-python/web2py/gluon/template.py", line 489, in extend\n    _super_nodes=super_nodes)\n  File "/Users/peterjeffryes/Documents/real-python/web2py/gluon/template.py", line 314, in __init__\n    self.parse(text)\n  File "/Users/peterjeffryes/Documents/real-python/web2py/gluon/template.py", line 760, in parse\n    self.extend(extend)\n  File "/Users/peterjeffryes/Documents/real-python/web2py/gluon/template.py", line 489, in extend\n    _super_nodes=super_nodes)\n  File "/Users/peterjeffryes/Documents/real-python/web2py/gluon/template.py", line 314, in __init__\n    self.parse(text)\n  File "/Users/peterjeffryes/Documents/real-python/web2py/gluon/template.py", line 760, in parse\n    self.extend(extend)\n  File "/Users/peterjeffryes/Documents/real-python/web2py/gluon/template.py", line 489, in extend\n    _super_nodes=super_nodes)\n  File "/Users/peterjeffryes/Documents/real-python/web2py/gluon/template.py", line 314, in __init__\n    self.parse(text)\n  File "/Users/peterjeffryes/Documents/real-python/web2py/gluon/template.py", line 760, in parse\n    self.extend(extend)\n  File "/Users/peterjeffryes/Documents/real-python/web2py/gluon/template.py", line 489, in extend\n    _super_nodes=super_nodes)\n  File "/Users/peterjeffryes/Documents/real-python/web2py/gluon/template.py", line 314, in __init__\n    self.parse(text)\n  File "/Users/peterjeffryes/Documents/real-python/web2py/gluon/template.py", line 760, in parse\n    self.extend(extend)\n  File "/Users/peterjeffryes/Documents/real-python/web2py/gluon/template.py", line 489, in extend\n    _super_nodes=super_nodes)\n  File "/Users/peterjeffryes/Documents/real-python/web2py/gluon/template.py", line 314, in __init__\n    self.parse(text)\n  File "/Users/peterjeffryes/Documents/real-python/web2py/gluon/template.py", line 760, in parse\n    self.extend(extend)\n  File "/Users/peterjeffryes/Documents/real-python/web2py/gluon/template.py", line 489, in extend\n    _super_nodes=super_nodes)\n  File "/Users/peterjeffryes/Documents/real-python/web2py/gluon/template.py", line 314, in __init__\n    self.parse(text)\n  File "/Users/peterjeffryes/Documents/real-python/web2py/gluon/template.py", line 760, in parse\n    self.extend(extend)\n  File "/Users/peterjeffryes/Documents/real-python/web2py/gluon/template.py", line 489, in extend\n    _super_nodes=super_nodes)\n  File "/Users/peterjeffryes/Documents/real-python/web2py/gluon/template.py", line 314, in __init__\n    self.parse(text)\n  File "/Users/peterjeffryes/Documents/real-python/web2py/gluon/template.py", line 760, in parse\n    self.extend(extend)\n  File "/Users/peterjeffryes/Documents/real-python/web2py/gluon/template.py", line 489, in extend\n    _super_nodes=super_nodes)\n  File "/Users/peterjeffryes/Documents/real-python/web2py/gluon/template.py", line 314, in __init__\n    self.parse(text)\n  File "/Users/peterjeffryes/Documents/real-python/web2py/gluon/template.py", line 760, in parse\n    self.extend(extend)\n  File "/Users/peterjeffryes/Documents/real-python/web2py/gluon/template.py", line 489, in extend\n    _super_nodes=super_nodes)\n  File "/Users/peterjeffryes/Documents/real-python/web2py/gluon/template.py", line 314, in __init__\n    self.parse(text)\n  File "/Users/peterjeffryes/Documents/real-python/web2py/gluon/template.py", line 760, in parse\n    self.extend(extend)\n  File "/Users/peterjeffryes/Documents/real-python/web2py/gluon/template.py", line 489, in extend\n    _super_nodes=super_nodes)\n  File "/Users/peterjeffryes/Documents/real-python/web2py/gluon/template.py", line 314, in __init__\n    self.parse(text)\n  File "/Users/peterjeffryes/Documents/real-python/web2py/gluon/template.py", line 760, in parse\n    self.extend(extend)\n  File "/Users/peterjeffryes/Documents/real-python/web2py/gluon/template.py", line 489, in extend\n    _super_nodes=super_nodes)\n  File "/Users/peterjeffryes/Documents/real-python/web2py/gluon/template.py", line 314, in __init__\n    self.parse(text)\n  File "/Users/peterjeffryes/Documents/real-python/web2py/gluon/template.py", line 760, in parse\n    self.extend(extend)\n  File "/Users/peterjeffryes/Documents/real-python/web2py/gluon/template.py", line 489, in extend\n    _super_nodes=super_nodes)\n  File "/Users/peterjeffryes/Documents/real-python/web2py/gluon/template.py", line 314, in __init__\n    self.parse(text)\n  File "/Users/peterjeffryes/Documents/real-python/web2py/gluon/template.py", line 760, in parse\n    self.extend(extend)\n  File "/Users/peterjeffryes/Documents/real-python/web2py/gluon/template.py", line 489, in extend\n    _super_nodes=super_nodes)\n  File "/Users/peterjeffryes/Documents/real-python/web2py/gluon/template.py", line 314, in __init__\n    self.parse(text)\n  File "/Users/peterjeffryes/Documents/real-python/web2py/gluon/template.py", line 760, in parse\n    self.extend(extend)\n  File "/Users/peterjeffryes/Documents/real-python/web2py/gluon/template.py", line 489, in extend\n    _super_nodes=super_nodes)\n  File "/Users/peterjeffryes/Documents/real-python/web2py/gluon/template.py", line 314, in __init__\n    self.parse(text)\n  File "/Users/peterjeffryes/Documents/real-python/web2py/gluon/template.py", line 760, in parse\n    self.extend(extend)\n  File "/Users/peterjeffryes/Documents/real-python/web2py/gluon/template.py", line 489, in extend\n    _super_nodes=super_nodes)\n  File "/Users/peterjeffryes/Documents/real-python/web2py/gluon/template.py", line 314, in __init__\n    self.parse(text)\n  File "/Users/peterjeffryes/Documents/real-python/web2py/gluon/template.py", line 760, in parse\n    self.extend(extend)\n  File "/Users/peterjeffryes/Documents/real-python/web2py/gluon/template.py", line 489, in extend\n    _super_nodes=super_nodes)\n  File "/Users/peterjeffryes/Documents/real-python/web2py/gluon/template.py", line 314, in __init__\n    self.parse(text)\n  File "/Users/peterjeffryes/Documents/real-python/web2py/gluon/template.py", line 760, in parse\n    self.extend(extend)\n  File "/Users/peterjeffryes/Documents/real-python/web2py/gluon/template.py", line 489, in extend\n    _super_nodes=super_nodes)\n  File "/Users/peterjeffryes/Documents/real-python/web2py/gluon/template.py", line 314, in __init__\n    self.parse(text)\n  File "/Users/peterjeffryes/Documents/real-python/web2py/gluon/template.py", line 760, in parse\n    self.extend(extend)\n  File "/Users/peterjeffryes/Documents/real-python/web2py/gluon/template.py", line 489, in extend\n    _super_nodes=super_nodes)\n  File "/Users/peterjeffryes/Documents/real-python/web2py/gluon/template.py", line 314, in __init__\n    self.parse(text)\n  File "/Users/peterjeffryes/Documents/real-python/web2py/gluon/template.py", line 760, in parse\n    self.extend(extend)\n  File "/Users/peterjeffryes/Documents/real-python/web2py/gluon/template.py", line 489, in extend\n    _super_nodes=super_nodes)\n  File "/Users/peterjeffryes/Documents/real-python/web2py/gluon/template.py", line 314, in __init__\n    self.parse(text)\n  File "/Users/peterjeffryes/Documents/real-python/web2py/gluon/template.py", line 760, in parse\n    self.extend(extend)\n  File "/Users/peterjeffryes/Documents/real-python/web2py/gluon/template.py", line 489, in extend\n    _super_nodes=super_nodes)\n  File "/Users/peterjeffryes/Documents/real-python/web2py/gluon/template.py", line 314, in __init__\n    self.parse(text)\n  File "/Users/peterjeffryes/Documents/real-python/web2py/gluon/template.py", line 760, in parse\n    self.extend(extend)\n  File "/Users/peterjeffryes/Documents/real-python/web2py/gluon/template.py", line 489, in extend\n    _super_nodes=super_nodes)\n  File "/Users/peterjeffryes/Documents/real-python/web2py/gluon/template.py", line 314, in __init__\n    self.parse(text)\n  File "/Users/peterjeffryes/Documents/real-python/web2py/gluon/template.py", line 760, in parse\n    self.extend(extend)\n  File "/Users/peterjeffryes/Documents/real-python/web2py/gluon/template.py", line 489, in extend\n    _super_nodes=super_nodes)\n  File "/Users/peterjeffryes/Documents/real-python/web2py/gluon/template.py", line 314, in __init__\n    self.parse(text)\n  File "/Users/peterjeffryes/Documents/real-python/web2py/gluon/template.py", line 760, in parse\n    self.extend(extend)\n  File "/Users/peterjeffryes/Documents/real-python/web2py/gluon/template.py", line 489, in extend\n    _super_nodes=super_nodes)\n  File "/Users/peterjeffryes/Documents/real-python/web2py/gluon/template.py", line 314, in __init__\n    self.parse(text)\n  File "/Users/peterjeffryes/Documents/real-python/web2py/gluon/template.py", line 760, in parse\n    self.extend(extend)\n  File "/Users/peterjeffryes/Documents/real-python/web2py/gluon/template.py", line 489, in extend\n    _super_nodes=super_nodes)\n  File "/Users/peterjeffryes/Documents/real-python/web2py/gluon/template.py", line 314, in __init__\n    self.parse(text)\n  File "/Users/peterjeffryes/Documents/real-python/web2py/gluon/template.py", line 760, in parse\n    self.extend(extend)\n  File "/Users/peterjeffryes/Documents/real-python/web2py/gluon/template.py", line 489, in extend\n    _super_nodes=super_nodes)\n  File "/Users/peterjeffryes/Documents/real-python/web2py/gluon/template.py", line 314, in __init__\n    self.parse(text)\n  File "/Users/peterjeffryes/Documents/real-python/web2py/gluon/template.py", line 760, in parse\n    self.extend(extend)\n  File "/Users/peterjeffryes/Documents/real-python/web2py/gluon/template.py", line 489, in extend\n    _super_nodes=super_nodes)\n  File "/Users/peterjeffryes/Documents/real-python/web2py/gluon/template.py", line 314, in __init__\n    self.parse(text)\n  File "/Users/peterjeffryes/Documents/real-python/web2py/gluon/template.py", line 760, in parse\n    self.extend(extend)\n  File "/Users/peterjeffryes/Documents/real-python/web2py/gluon/template.py", line 489, in extend\n    _super_nodes=super_nodes)\n  File "/Users/peterjeffryes/Documents/real-python/web2py/gluon/template.py", line 314, in __init__\n    self.parse(text)\n  File "/Users/peterjeffryes/Documents/real-python/web2py/gluon/template.py", line 760, in parse\n    self.extend(extend)\n  File "/Users/peterjeffryes/Documents/real-python/web2py/gluon/template.py", line 489, in extend\n    _super_nodes=super_nodes)\n  File "/Users/peterjeffryes/Documents/real-python/web2py/gluon/template.py", line 314, in __init__\n    self.parse(text)\n  File "/Users/peterjeffryes/Documents/real-python/web2py/gluon/template.py", line 760, in parse\n    self.extend(extend)\n  File "/Users/peterjeffryes/Documents/real-python/web2py/gluon/template.py", line 489, in extend\n    _super_nodes=super_nodes)\n  File "/Users/peterjeffryes/Documents/real-python/web2py/gluon/template.py", line 314, in __init__\n    self.parse(text)\n  File "/Users/peterjeffryes/Documents/real-python/web2py/gluon/template.py", line 760, in parse\n    self.extend(extend)\n  File "/Users/peterjeffryes/Documents/real-python/web2py/gluon/template.py", line 489, in extend\n    _super_nodes=super_nodes)\n  File "/Users/peterjeffryes/Documents/real-python/web2py/gluon/template.py", line 314, in __init__\n    self.parse(text)\n  File "/Users/peterjeffryes/Documents/real-python/web2py/gluon/template.py", line 760, in parse\n    self.extend(extend)\n  File "/Users/peterjeffryes/Documents/real-python/web2py/gluon/template.py", line 489, in extend\n    _super_nodes=super_nodes)\n  File "/Users/peterjeffryes/Documents/real-python/web2py/gluon/template.py", line 314, in __init__\n    self.parse(text)\n  File "/Users/peterjeffryes/Documents/real-python/web2py/gluon/template.py", line 760, in parse\n    self.extend(extend)\n  File "/Users/peterjeffryes/Documents/real-python/web2py/gluon/template.py", line 489, in extend\n    _super_nodes=super_nodes)\n  File "/Users/peterjeffryes/Documents/real-python/web2py/gluon/template.py", line 314, in __init__\n    self.parse(text)\n  File "/Users/peterjeffryes/Documents/real-python/web2py/gluon/template.py", line 760, in parse\n    self.extend(extend)\n  File "/Users/peterjeffryes/Documents/real-python/web2py/gluon/template.py", line 489, in extend\n    _super_nodes=super_nodes)\n  File "/Users/peterjeffryes/Documents/real-python/web2py/gluon/template.py", line 314, in __init__\n    self.parse(text)\n  File "/Users/peterjeffryes/Documents/real-python/web2py/gluon/template.py", line 760, in parse\n    self.extend(extend)\n  File "/Users/peterjeffryes/Documents/real-python/web2py/gluon/template.py", line 489, in extend\n    _super_nodes=super_nodes)\n  File "/Users/peterjeffryes/Documents/real-python/web2py/gluon/template.py", line 314, in __init__\n    self.parse(text)\n  File "/Users/peterjeffryes/Documents/real-python/web2py/gluon/template.py", line 760, in parse\n    self.extend(extend)\n  File "/Users/peterjeffryes/Documents/real-python/web2py/gluon/template.py", line 489, in extend\n    _super_nodes=super_nodes)\n  File "/Users/peterjeffryes/Documents/real-python/web2py/gluon/template.py", line 314, in __init__\n    self.parse(text)\n  File "/Users/peterjeffryes/Documents/real-python/web2py/gluon/template.py", line 760, in parse\n    self.extend(extend)\n  File "/Users/peterjeffryes/Documents/real-python/web2py/gluon/template.py", line 489, in extend\n    _super_nodes=super_nodes)\n  File "/Users/peterjeffryes/Documents/real-python/web2py/gluon/template.py", line 314, in __init__\n    self.parse(text)\n  File "/Users/peterjeffryes/Documents/real-python/web2py/gluon/template.py", line 760, in parse\n    self.extend(extend)\n  File "/Users/peterjeffryes/Documents/real-python/web2py/gluon/template.py", line 489, in extend\n    _super_nodes=super_nodes)\n  File "/Users/peterjeffryes/Documents/real-python/web2py/gluon/template.py", line 314, in __init__\n    self.parse(text)\n  File "/Users/peterjeffryes/Documents/real-python/web2py/gluon/template.py", line 760, in parse\n    self.extend(extend)\n  File "/Users/peterjeffryes/Documents/real-python/web2py/gluon/template.py", line 489, in extend\n    _super_nodes=super_nodes)\n  File "/Users/peterjeffryes/Documents/real-python/web2py/gluon/template.py", line 314, in __init__\n    self.parse(text)\n  File "/Users/peterjeffryes/Documents/real-python/web2py/gluon/template.py", line 760, in parse\n    self.extend(extend)\n  File "/Users/peterjeffryes/Documents/real-python/web2py/gluon/template.py", line 489, in extend\n    _super_nodes=super_nodes)\n  File "/Users/peterjeffryes/Documents/real-python/web2py/gluon/template.py", line 314, in __init__\n    self.parse(text)\n  File "/Users/peterjeffryes/Documents/real-python/web2py/gluon/template.py", line 760, in parse\n    self.extend(extend)\n  File "/Users/peterjeffryes/Documents/real-python/web2py/gluon/template.py", line 489, in extend\n    _super_nodes=super_nodes)\n  File "/Users/peterjeffryes/Documents/real-python/web2py/gluon/template.py", line 314, in __init__\n    self.parse(text)\n  File "/Users/peterjeffryes/Documents/real-python/web2py/gluon/template.py", line 760, in parse\n    self.extend(extend)\n  File "/Users/peterjeffryes/Documents/real-python/web2py/gluon/template.py", line 489, in extend\n    _super_nodes=super_nodes)\n  File "/Users/peterjeffryes/Documents/real-python/web2py/gluon/template.py", line 314, in __init__\n    self.parse(text)\n  File "/Users/peterjeffryes/Documents/real-python/web2py/gluon/template.py", line 760, in parse\n    self.extend(extend)\n  File "/Users/peterjeffryes/Documents/real-python/web2py/gluon/template.py", line 489, in extend\n    _super_nodes=super_nodes)\n  File "/Users/peterjeffryes/Documents/real-python/web2py/gluon/template.py", line 314, in __init__\n    self.parse(text)\n  File "/Users/peterjeffryes/Documents/real-python/web2py/gluon/template.py", line 760, in parse\n    self.extend(extend)\n  File "/Users/peterjeffryes/Documents/real-python/web2py/gluon/template.py", line 489, in extend\n    _super_nodes=super_nodes)\n  File "/Users/peterjeffryes/Documents/real-python/web2py/gluon/template.py", line 314, in __init__\n    self.parse(text)\n  File "/Users/peterjeffryes/Documents/real-python/web2py/gluon/template.py", line 760, in parse\n    self.extend(extend)\n  File "/Users/peterjeffryes/Documents/real-python/web2py/gluon/template.py", line 489, in extend\n    _super_nodes=super_nodes)\n  File "/Users/peterjeffryes/Documents/real-python/web2py/gluon/template.py", line 314, in __init__\n    self.parse(text)\n  File "/Users/peterjeffryes/Documents/real-python/web2py/gluon/template.py", line 760, in parse\n    self.extend(extend)\n  File "/Users/peterjeffryes/Documents/real-python/web2py/gluon/template.py", line 489, in extend\n    _super_nodes=super_nodes)\n  File "/Users/peterjeffryes/Documents/real-python/web2py/gluon/template.py", line 314, in __init__\n    self.parse(text)\n  File "/Users/peterjeffryes/Documents/real-python/web2py/gluon/template.py", line 760, in parse\n    self.extend(extend)\n  File "/Users/peterjeffryes/Documents/real-python/web2py/gluon/template.py", line 489, in extend\n    _super_nodes=super_nodes)\n  File "/Users/peterjeffryes/Documents/real-python/web2py/gluon/template.py", line 314, in __init__\n    self.parse(text)\n  File "/Users/peterjeffryes/Documents/real-python/web2py/gluon/template.py", line 760, in parse\n    self.extend(extend)\n  File "/Users/peterjeffryes/Documents/real-python/web2py/gluon/template.py", line 489, in extend\n    _super_nodes=super_nodes)\n  File "/Users/peterjeffryes/Documents/real-python/web2py/gluon/template.py", line 314, in __init__\n    self.parse(text)\n  File "/Users/peterjeffryes/Documents/real-python/web2py/gluon/template.py", line 760, in parse\n    self.extend(extend)\n  File "/Users/peterjeffryes/Documents/real-python/web2py/gluon/template.py", line 489, in extend\n    _super_nodes=super_nodes)\n  File "/Users/peterjeffryes/Documents/real-python/web2py/gluon/template.py", line 314, in __init__\n    self.parse(text)\n  File "/Users/peterjeffryes/Documents/real-python/web2py/gluon/template.py", line 760, in parse\n    self.extend(extend)\n  File "/Users/peterjeffryes/Documents/real-python/web2py/gluon/template.py", line 489, in extend\n    _super_nodes=super_nodes)\n  File "/Users/peterjeffryes/Documents/real-python/web2py/gluon/template.py", line 314, in __init__\n    self.parse(text)\n  File "/Users/peterjeffryes/Documents/real-python/web2py/gluon/template.py", line 760, in parse\n    self.extend(extend)\n  File "/Users/peterjeffryes/Documents/real-python/web2py/gluon/template.py", line 489, in extend\n    _super_nodes=super_nodes)\n  File "/Users/peterjeffryes/Documents/real-python/web2py/gluon/template.py", line 314, in __init__\n    self.parse(text)\n  File "/Users/peterjeffryes/Documents/real-python/web2py/gluon/template.py", line 760, in parse\n    self.extend(extend)\n  File "/Users/peterjeffryes/Documents/real-python/web2py/gluon/template.py", line 489, in extend\n    _super_nodes=super_nodes)\n  File "/Users/peterjeffryes/Documents/real-python/web2py/gluon/template.py", line 314, in __init__\n    self.parse(text)\n  File "/Users/peterjeffryes/Documents/real-python/web2py/gluon/template.py", line 760, in parse\n    self.extend(extend)\n  File "/Users/peterjeffryes/Documents/real-python/web2py/gluon/template.py", line 489, in extend\n    _super_nodes=super_nodes)\n  File "/Users/peterjeffryes/Documents/real-python/web2py/gluon/template.py", line 314, in __init__\n    self.parse(text)\n  File "/Users/peterjeffryes/Documents/real-python/web2py/gluon/template.py", line 760, in parse\n    self.extend(extend)\n  File "/Users/peterjeffryes/Documents/real-python/web2py/gluon/template.py", line 489, in extend\n    _super_nodes=super_nodes)\n  File "/Users/peterjeffryes/Documents/real-python/web2py/gluon/template.py", line 314, in __init__\n    self.parse(text)\n  File "/Users/peterjeffryes/Documents/real-python/web2py/gluon/template.py", line 760, in parse\n    self.extend(extend)\n  File "/Users/peterjeffryes/Documents/real-python/web2py/gluon/template.py", line 489, in extend\n    _super_nodes=super_nodes)\n  File "/Users/peterjeffryes/Documents/real-python/web2py/gluon/template.py", line 314, in __init__\n    self.parse(text)\n  File "/Users/peterjeffryes/Documents/real-python/web2py/gluon/template.py", line 760, in parse\n    self.extend(extend)\n  File "/Users/peterjeffryes/Documents/real-python/web2py/gluon/template.py", line 489, in extend\n    _super_nodes=super_nodes)\n  File "/Users/peterjeffryes/Documents/real-python/web2py/gluon/template.py", line 314, in __init__\n    self.parse(text)\n  File "/Users/peterjeffryes/Documents/real-python/web2py/gluon/template.py", line 760, in parse\n    self.extend(extend)\n  File "/Users/peterjeffryes/Documents/real-python/web2py/gluon/template.py", line 489, in extend\n    _super_nodes=super_nodes)\n  File "/Users/peterjeffryes/Documents/real-python/web2py/gluon/template.py", line 314, in __init__\n    self.parse(text)\n  File "/Users/peterjeffryes/Documents/real-python/web2py/gluon/template.py", line 760, in parse\n    self.extend(extend)\n  File "/Users/peterjeffryes/Documents/real-python/web2py/gluon/template.py", line 489, in extend\n    _super_nodes=super_nodes)\n  File "/Users/peterjeffryes/Documents/real-python/web2py/gluon/template.py", line 314, in __init__\n    self.parse(text)\n  File "/Users/peterjeffryes/Documents/real-python/web2py/gluon/template.py", line 760, in parse\n    self.extend(extend)\n  File "/Users/peterjeffryes/Documents/real-python/web2py/gluon/template.py", line 489, in extend\n    _super_nodes=super_nodes)\n  File "/Users/peterjeffryes/Documents/real-python/web2py/gluon/template.py", line 314, in __init__\n    self.parse(text)\n  File "/Users/peterjeffryes/Documents/real-python/web2py/gluon/template.py", line 760, in parse\n    self.extend(extend)\n  File "/Users/peterjeffryes/Documents/real-python/web2py/gluon/template.py", line 489, in extend\n    _super_nodes=super_nodes)\n  File "/Users/peterjeffryes/Documents/real-python/web2py/gluon/template.py", line 314, in __init__\n    self.parse(text)\n  File "/Users/peterjeffryes/Documents/real-python/web2py/gluon/template.py", line 760, in parse\n    self.extend(extend)\n  File "/Users/peterjeffryes/Documents/real-python/web2py/gluon/template.py", line 489, in extend\n    _super_nodes=super_nodes)\n  File "/Users/peterjeffryes/Documents/real-python/web2py/gluon/template.py", line 314, in __init__\n    self.parse(text)\n  File "/Users/peterjeffryes/Documents/real-python/web2py/gluon/template.py", line 760, in parse\n    self.extend(extend)\n  File "/Users/peterjeffryes/Documents/real-python/web2py/gluon/template.py", line 489, in extend\n    _super_nodes=super_nodes)\n  File "/Users/peterjeffryes/Documents/real-python/web2py/gluon/template.py", line 314, in __init__\n    self.parse(text)\n  File "/Users/peterjeffryes/Documents/real-python/web2py/gluon/template.py", line 760, in parse\n    self.extend(extend)\n  File "/Users/peterjeffryes/Documents/real-python/web2py/gluon/template.py", line 489, in extend\n    _super_nodes=super_nodes)\n  File "/Users/peterjeffryes/Documents/real-python/web2py/gluon/template.py", line 314, in __init__\n    self.parse(text)\n  File "/Users/peterjeffryes/Documents/real-python/web2py/gluon/template.py", line 760, in parse\n    self.extend(extend)\n  File "/Users/peterjeffryes/Documents/real-python/web2py/gluon/template.py", line 489, in extend\n    _super_nodes=super_nodes)\n  File "/Users/peterjeffryes/Documents/real-python/web2py/gluon/template.py", line 314, in __init__\n    self.parse(text)\n  File "/Users/peterjeffryes/Documents/real-python/web2py/gluon/template.py", line 760, in parse\n    self.extend(extend)\n  File "/Users/peterjeffryes/Documents/real-python/web2py/gluon/template.py", line 489, in extend\n    _super_nodes=super_nodes)\n  File "/Users/peterjeffryes/Documents/real-python/web2py/gluon/template.py", line 314, in __init__\n    self.parse(text)\n  File "/Users/peterjeffryes/Documents/real-python/web2py/gluon/template.py", line 760, in parse\n    self.extend(extend)\n  File "/Users/peterjeffryes/Documents/real-python/web2py/gluon/template.py", line 489, in extend\n    _super_nodes=super_nodes)\n  File "/Users/peterjeffryes/Documents/real-python/web2py/gluon/template.py", line 314, in __init__\n    self.parse(text)\n  File "/Users/peterjeffryes/Documents/real-python/web2py/gluon/template.py", line 760, in parse\n    self.extend(extend)\n  File "/Users/peterjeffryes/Documents/real-python/web2py/gluon/template.py", line 489, in extend\n    _super_nodes=super_nodes)\n  File "/Users/peterjeffryes/Documents/real-python/web2py/gluon/template.py", line 314, in __init__\n    self.parse(text)\n  File "/Users/peterjeffryes/Documents/real-python/web2py/gluon/template.py", line 760, in parse\n    self.extend(extend)\n  File "/Users/peterjeffryes/Documents/real-python/web2py/gluon/template.py", line 489, in extend\n    _super_nodes=super_nodes)\n  File "/Users/peterjeffryes/Documents/real-python/web2py/gluon/template.py", line 314, in __init__\n    self.parse(text)\n  File "/Users/peterjeffryes/Documents/real-python/web2py/gluon/template.py", line 760, in parse\n    self.extend(extend)\n  File "/Users/peterjeffryes/Documents/real-python/web2py/gluon/template.py", line 489, in extend\n    _super_nodes=super_nodes)\n  File "/Users/peterjeffryes/Documents/real-python/web2py/gluon/template.py", line 314, in __init__\n    self.parse(text)\n  File "/Users/peterjeffryes/Documents/real-python/web2py/gluon/template.py", line 760, in parse\n    self.extend(extend)\n  File "/Users/peterjeffryes/Documents/real-python/web2py/gluon/template.py", line 489, in extend\n    _super_nodes=super_nodes)\n  File "/Users/peterjeffryes/Documents/real-python/web2py/gluon/template.py", line 314, in __init__\n    self.parse(text)\n  File "/Users/peterjeffryes/Documents/real-python/web2py/gluon/template.py", line 760, in parse\n    self.extend(extend)\n  File "/Users/peterjeffryes/Documents/real-python/web2py/gluon/template.py", line 489, in extend\n    _super_nodes=super_nodes)\n  File "/Users/peterjeffryes/Documents/real-python/web2py/gluon/template.py", line 314, in __init__\n    self.parse(text)\n  File "/Users/peterjeffryes/Documents/real-python/web2py/gluon/template.py", line 760, in parse\n    self.extend(extend)\n  File "/Users/peterjeffryes/Documents/real-python/web2py/gluon/template.py", line 489, in extend\n    _super_nodes=super_nodes)\n  File "/Users/peterjeffryes/Documents/real-python/web2py/gluon/template.py", line 314, in __init__\n    self.parse(text)\n  File "/Users/peterjeffryes/Documents/real-python/web2py/gluon/template.py", line 760, in parse\n    self.extend(extend)\n  File "/Users/peterjeffryes/Documents/real-python/web2py/gluon/template.py", line 489, in extend\n    _super_nodes=super_nodes)\n  File "/Users/peterjeffryes/Documents/real-python/web2py/gluon/template.py", line 314, in __init__\n    self.parse(text)\n  File "/Users/peterjeffryes/Documents/real-python/web2py/gluon/template.py", line 760, in parse\n    self.extend(extend)\n  File "/Users/peterjeffryes/Documents/real-python/web2py/gluon/template.py", line 489, in extend\n    _super_nodes=super_nodes)\n  File "/Users/peterjeffryes/Documents/real-python/web2py/gluon/template.py", line 314, in __init__\n    self.parse(text)\n  File "/Users/peterjeffryes/Documents/real-python/web2py/gluon/template.py", line 760, in parse\n    self.extend(extend)\n  File "/Users/peterjeffryes/Documents/real-python/web2py/gluon/template.py", line 489, in extend\n    _super_nodes=super_nodes)\n  File "/Users/peterjeffryes/Documents/real-python/web2py/gluon/template.py", line 314, in __init__\n    self.parse(text)\n  File "/Users/peterjeffryes/Documents/real-python/web2py/gluon/template.py", line 760, in parse\n    self.extend(extend)\n  File "/Users/peterjeffryes/Documents/real-python/web2py/gluon/template.py", line 489, in extend\n    _super_nodes=super_nodes)\n  File "/Users/peterjeffryes/Documents/real-python/web2py/gluon/template.py", line 314, in __init__\n    self.parse(text)\n  File "/Users/peterjeffryes/Documents/real-python/web2py/gluon/template.py", line 760, in parse\n    self.extend(extend)\n  File "/Users/peterjeffryes/Documents/real-python/web2py/gluon/template.py", line 489, in extend\n    _super_nodes=super_nodes)\n  File "/Users/peterjeffryes/Documents/real-python/web2py/gluon/template.py", line 314, in __init__\n    self.parse(text)\n  File "/Users/peterjeffryes/Documents/real-python/web2py/gluon/template.py", line 760, in parse\n    self.extend(extend)\n  File "/Users/peterjeffryes/Documents/real-python/web2py/gluon/template.py", line 489, in extend\n    _super_nodes=super_nodes)\n  File "/Users/peterjeffryes/Documents/real-python/web2py/gluon/template.py", line 314, in __init__\n    self.parse(text)\n  File "/Users/peterjeffryes/Documents/real-python/web2py/gluon/template.py", line 760, in parse\n    self.extend(extend)\n  File "/Users/peterjeffryes/Documents/real-python/web2py/gluon/template.py", line 489, in extend\n    _super_nodes=super_nodes)\n  File "/Users/peterjeffryes/Documents/real-python/web2py/gluon/template.py", line 314, in __init__\n    self.parse(text)\n  File "/Users/peterjeffryes/Documents/real-python/web2py/gluon/template.py", line 760, in parse\n    self.extend(extend)\n  File "/Users/peterjeffryes/Documents/real-python/web2py/gluon/template.py", line 489, in extend\n    _super_nodes=super_nodes)\n  File "/Users/peterjeffryes/Documents/real-python/web2py/gluon/template.py", line 314, in __init__\n    self.parse(text)\n  File "/Users/peterjeffryes/Documents/real-python/web2py/gluon/template.py", line 760, in parse\n    self.extend(extend)\n  File "/Users/peterjeffryes/Documents/real-python/web2py/gluon/template.py", line 489, in extend\n    _super_nodes=super_nodes)\n  File "/Users/peterjeffryes/Documents/real-python/web2py/gluon/template.py", line 314, in __init__\n    self.parse(text)\n  File "/Users/peterjeffryes/Documents/real-python/web2py/gluon/template.py", line 760, in parse\n    self.extend(extend)\n  File "/Users/peterjeffryes/Documents/real-python/web2py/gluon/template.py", line 489, in extend\n    _super_nodes=super_nodes)\n  File "/Users/peterjeffryes/Documents/real-python/web2py/gluon/template.py", line 314, in __init__\n    self.parse(text)\n  File "/Users/peterjeffryes/Documents/real-python/web2py/gluon/template.py", line 760, in parse\n    self.extend(extend)\n  File "/Users/peterjeffryes/Documents/real-python/web2py/gluon/template.py", line 489, in extend\n    _super_nodes=super_nodes)\n  File "/Users/peterjeffryes/Documents/real-python/web2py/gluon/template.py", line 314, in __init__\n    self.parse(text)\n  File "/Users/peterjeffryes/Documents/real-python/web2py/gluon/template.py", line 760, in parse\n    self.extend(extend)\n  File "/Users/peterjeffryes/Documents/real-python/web2py/gluon/template.py", line 489, in extend\n    _super_nodes=super_nodes)\n  File "/Users/peterjeffryes/Documents/real-python/web2py/gluon/template.py", line 314, in __init__\n    self.parse(text)\n  File "/Users/peterjeffryes/Documents/real-python/web2py/gluon/template.py", line 760, in parse\n    self.extend(extend)\n  File "/Users/peterjeffryes/Documents/real-python/web2py/gluon/template.py", line 489, in extend\n    _super_nodes=super_nodes)\n  File "/Users/peterjeffryes/Documents/real-python/web2py/gluon/template.py", line 314, in __init__\n    self.parse(text)\n  File "/Users/peterjeffryes/Documents/real-python/web2py/gluon/template.py", line 760, in parse\n    self.extend(extend)\n  File "/Users/peterjeffryes/Documents/real-python/web2py/gluon/template.py", line 489, in extend\n    _super_nodes=super_nodes)\n  File "/Users/peterjeffryes/Documents/real-python/web2py/gluon/template.py", line 314, in __init__\n    self.parse(text)\n  File "/Users/peterjeffryes/Documents/real-python/web2py/gluon/template.py", line 760, in parse\n    self.extend(extend)\n  File "/Users/peterjeffryes/Documents/real-python/web2py/gluon/template.py", line 489, in extend\n    _super_nodes=super_nodes)\n  File "/Users/peterjeffryes/Documents/real-python/web2py/gluon/template.py", line 314, in __init__\n    self.parse(text)\n  File "/Users/peterjeffryes/Documents/real-python/web2py/gluon/template.py", line 760, in parse\n    self.extend(extend)\n  File "/Users/peterjeffryes/Documents/real-python/web2py/gluon/template.py", line 489, in extend\n    _super_nodes=super_nodes)\n  File "/Users/peterjeffryes/Documents/real-python/web2py/gluon/template.py", line 314, in __init__\n    self.parse(text)\n  File "/Users/peterjeffryes/Documents/real-python/web2py/gluon/template.py", line 760, in parse\n    self.extend(extend)\n  File "/Users/peterjeffryes/Documents/real-python/web2py/gluon/template.py", line 489, in extend\n    _super_nodes=super_nodes)\n  File "/Users/peterjeffryes/Documents/real-python/web2py/gluon/template.py", line 314, in __init__\n    self.parse(text)\n  File "/Users/peterjeffryes/Documents/real-python/web2py/gluon/template.py", line 760, in parse\n    self.extend(extend)\n  File "/Users/peterjeffryes/Documents/real-python/web2py/gluon/template.py", line 489, in extend\n    _super_nodes=super_nodes)\n  File "/Users/peterjeffryes/Documents/real-python/web2py/gluon/template.py", line 314, in __init__\n    self.parse(text)\n  File "/Users/peterjeffryes/Documents/real-python/web2py/gluon/template.py", line 760, in parse\n    self.extend(extend)\n  File "/Users/peterjeffryes/Documents/real-python/web2py/gluon/template.py", line 489, in extend\n    _super_nodes=super_nodes)\n  File "/Users/peterjeffryes/Documents/real-python/web2py/gluon/template.py", line 314, in __init__\n    self.parse(text)\n  File "/Users/peterjeffryes/Documents/real-python/web2py/gluon/template.py", line 760, in parse\n    self.extend(extend)\n  File "/Users/peterjeffryes/Documents/real-python/web2py/gluon/template.py", line 489, in extend\n    _super_nodes=super_nodes)\n  File "/Users/peterjeffryes/Documents/real-python/web2py/gluon/template.py", line 314, in __init__\n    self.parse(text)\n  File "/Users/peterjeffryes/Documents/real-python/web2py/gluon/template.py", line 760, in parse\n    self.extend(extend)\n  File "/Users/peterjeffryes/Documents/real-python/web2py/gluon/template.py", line 489, in extend\n    _super_nodes=super_nodes)\n  File "/Users/peterjeffryes/Documents/real-python/web2py/gluon/template.py", line 314, in __init__\n    self.parse(text)\n  File "/Users/peterjeffryes/Documents/real-python/web2py/gluon/template.py", line 760, in parse\n    self.extend(extend)\n  File "/Users/peterjeffryes/Documents/real-python/web2py/gluon/template.py", line 489, in extend\n    _super_nodes=super_nodes)\n  File "/Users/peterjeffryes/Documents/real-python/web2py/gluon/template.py", line 314, in __init__\n    self.parse(text)\n  File "/Users/peterjeffryes/Documents/real-python/web2py/gluon/template.py", line 760, in parse\n    self.extend(extend)\n  File "/Users/peterjeffryes/Documents/real-python/web2py/gluon/template.py", line 489, in extend\n    _super_nodes=super_nodes)\n  File "/Users/peterjeffryes/Documents/real-python/web2py/gluon/template.py", line 314, in __init__\n    self.parse(text)\n  File "/Users/peterjeffryes/Documents/real-python/web2py/gluon/template.py", line 760, in parse\n    self.extend(extend)\n  File "/Users/peterjeffryes/Documents/real-python/web2py/gluon/template.py", line 489, in extend\n    _super_nodes=super_nodes)\n  File "/Users/peterjeffryes/Documents/real-python/web2py/gluon/template.py", line 314, in __init__\n    self.parse(text)\n  File "/Users/peterjeffryes/Documents/real-python/web2py/gluon/template.py", line 760, in parse\n    self.extend(extend)\n  File "/Users/peterjeffryes/Documents/real-python/web2py/gluon/template.py", line 489, in extend\n    _super_nodes=super_nodes)\n  File "/Users/peterjeffryes/Documents/real-python/web2py/gluon/template.py", line 314, in __init__\n    self.parse(text)\n  File "/Users/peterjeffryes/Documents/real-python/web2py/gluon/template.py", line 760, in parse\n    self.extend(extend)\n  File "/Users/peterjeffryes/Documents/real-python/web2py/gluon/template.py", line 489, in extend\n    _super_nodes=super_nodes)\n  File "/Users/peterjeffryes/Documents/real-python/web2py/gluon/template.py", line 314, in __init__\n    self.parse(text)\n  File "/Users/peterjeffryes/Documents/real-python/web2py/gluon/template.py", line 760, in parse\n    self.extend(extend)\n  File "/Users/peterjeffryes/Documents/real-python/web2py/gluon/template.py", line 489, in extend\n    _super_nodes=super_nodes)\n  File "/Users/peterjeffryes/Documents/real-python/web2py/gluon/template.py", line 314, in __init__\n    self.parse(text)\n  File "/Users/peterjeffryes/Documents/real-python/web2py/gluon/template.py", line 760, in parse\n    self.extend(extend)\n  File "/Users/peterjeffryes/Documents/real-python/web2py/gluon/template.py", line 489, in extend\n    _super_nodes=super_nodes)\n  File "/Users/peterjeffryes/Documents/real-python/web2py/gluon/template.py", line 314, in __init__\n    self.parse(text)\n  File "/Users/peterjeffryes/Documents/real-python/web2py/gluon/template.py", line 760, in parse\n    self.extend(extend)\n  File "/Users/peterjeffryes/Documents/real-python/web2py/gluon/template.py", line 489, in extend\n    _super_nodes=super_nodes)\n  File "/Users/peterjeffryes/Documents/real-python/web2py/gluon/template.py", line 314, in __init__\n    self.parse(text)\n  File "/Users/peterjeffryes/Documents/real-python/web2py/gluon/template.py", line 760, in parse\n    self.extend(extend)\n  File "/Users/peterjeffryes/Documents/real-python/web2py/gluon/template.py", line 489, in extend\n    _super_nodes=super_nodes)\n  File "/Users/peterjeffryes/Documents/real-python/web2py/gluon/template.py", line 314, in __init__\n    self.parse(text)\n  File "/Users/peterjeffryes/Documents/real-python/web2py/gluon/template.py", line 760, in parse\n    self.extend(extend)\n  File "/Users/peterjeffryes/Documents/real-python/web2py/gluon/template.py", line 489, in extend\n    _super_nodes=super_nodes)\n  File "/Users/peterjeffryes/Documents/real-python/web2py/gluon/template.py", line 314, in __init__\n    self.parse(text)\n  File "/Users/peterjeffryes/Documents/real-python/web2py/gluon/template.py", line 760, in parse\n    self.extend(extend)\n  File "/Users/peterjeffryes/Documents/real-python/web2py/gluon/template.py", line 489, in extend\n    _super_nodes=super_nodes)\n  File "/Users/peterjeffryes/Documents/real-python/web2py/gluon/template.py", line 314, in __init__\n    self.parse(text)\n  File "/Users/peterjeffryes/Documents/real-python/web2py/gluon/template.py", line 760, in parse\n    self.extend(extend)\n  File "/Users/peterjeffryes/Documents/real-python/web2py/gluon/template.py", line 489, in extend\n    _super_nodes=super_nodes)\n  File "/Users/peterjeffryes/Documents/real-python/web2py/gluon/template.py", line 314, in __init__\n    self.parse(text)\n  File "/Users/peterjeffryes/Documents/real-python/web2py/gluon/template.py", line 760, in parse\n    self.extend(extend)\n  File "/Users/peterjeffryes/Documents/real-python/web2py/gluon/template.py", line 489, in extend\n    _super_nodes=super_nodes)\n  File "/Users/peterjeffryes/Documents/real-python/web2py/gluon/template.py", line 314, in __init__\n    self.parse(text)\n  File "/Users/peterjeffryes/Documents/real-python/web2py/gluon/template.py", line 760, in parse\n    self.extend(extend)\n  File "/Users/peterjeffryes/Documents/real-python/web2py/gluon/template.py", line 489, in extend\n    _super_nodes=super_nodes)\n  File "/Users/peterjeffryes/Documents/real-python/web2py/gluon/template.py", line 314, in __init__\n    self.parse(text)\n  File "/Users/peterjeffryes/Documents/real-python/web2py/gluon/template.py", line 760, in parse\n    self.extend(extend)\n  File "/Users/peterjeffryes/Documents/real-python/web2py/gluon/template.py", line 489, in extend\n    _super_nodes=super_nodes)\n  File "/Users/peterjeffryes/Documents/real-python/web2py/gluon/template.py", line 314, in __init__\n    self.parse(text)\n  File "/Users/peterjeffryes/Documents/real-python/web2py/gluon/template.py", line 760, in parse\n    self.extend(extend)\n  File "/Users/peterjeffryes/Documents/real-python/web2py/gluon/template.py", line 489, in extend\n    _super_nodes=super_nodes)\n  File "/Users/peterjeffryes/Documents/real-python/web2py/gluon/template.py", line 314, in __init__\n    self.parse(text)\n  File "/Users/peterjeffryes/Documents/real-python/web2py/gluon/template.py", line 760, in parse\n    self.extend(extend)\n  File "/Users/peterjeffryes/Documents/real-python/web2py/gluon/template.py", line 489, in extend\n    _super_nodes=super_nodes)\n  File "/Users/peterjeffryes/Documents/real-python/web2py/gluon/template.py", line 314, in __init__\n    self.parse(text)\n  File "/Users/peterjeffryes/Documents/real-python/web2py/gluon/template.py", line 760, in parse\n    self.extend(extend)\n  File "/Users/peterjeffryes/Documents/real-python/web2py/gluon/template.py", line 489, in extend\n    _super_nodes=super_nodes)\n  File "/Users/peterjeffryes/Documents/real-python/web2py/gluon/template.py", line 314, in __init__\n    self.parse(text)\n  File "/Users/peterjeffryes/Documents/real-python/web2py/gluon/template.py", line 760, in parse\n    self.extend(extend)\n  File "/Users/peterjeffryes/Documents/real-python/web2py/gluon/template.py", line 489, in extend\n    _super_nodes=super_nodes)\n  File "/Users/peterjeffryes/Documents/real-python/web2py/gluon/template.py", line 314, in __init__\n    self.parse(text)\n  File "/Users/peterjeffryes/Documents/real-python/web2py/gluon/template.py", line 760, in parse\n    self.extend(extend)\n  File "/Users/peterjeffryes/Documents/real-python/web2py/gluon/template.py", line 489, in extend\n    _super_nodes=super_nodes)\n  File "/Users/peterjeffryes/Documents/real-python/web2py/gluon/template.py", line 314, in __init__\n    self.parse(text)\n  File "/Users/peterjeffryes/Documents/real-python/web2py/gluon/template.py", line 760, in parse\n    self.extend(extend)\n  File "/Users/peterjeffryes/Documents/real-python/web2py/gluon/template.py", line 489, in extend\n    _super_nodes=super_nodes)\n  File "/Users/peterjeffryes/Documents/real-python/web2py/gluon/template.py", line 314, in __init__\n    self.parse(text)\n  File "/Users/peterjeffryes/Documents/real-python/web2py/gluon/template.py", line 760, in parse\n    self.extend(extend)\n  File "/Users/peterjeffryes/Documents/real-python/web2py/gluon/template.py", line 489, in extend\n    _super_nodes=super_nodes)\n  File "/Users/peterjeffryes/Documents/real-python/web2py/gluon/template.py", line 314, in __init__\n    self.parse(text)\n  File "/Users/peterjeffryes/Documents/real-python/web2py/gluon/template.py", line 760, in parse\n    self.extend(extend)\n  File "/Users/peterjeffryes/Documents/real-python/web2py/gluon/template.py", line 489, in extend\n    _super_nodes=super_nodes)\n  File "/Users/peterjeffryes/Documents/real-python/web2py/gluon/template.py", line 314, in __init__\n    self.parse(text)\n  File "/Users/peterjeffryes/Documents/real-python/web2py/gluon/template.py", line 760, in parse\n    self.extend(extend)\n  File "/Users/peterjeffryes/Documents/real-python/web2py/gluon/template.py", line 489, in extend\n    _super_nodes=super_nodes)\n  File "/Users/peterjeffryes/Documents/real-python/web2py/gluon/template.py", line 314, in __init__\n    self.parse(text)\n  File "/Users/peterjeffryes/Documents/real-python/web2py/gluon/template.py", line 760, in parse\n    self.extend(extend)\n  File "/Users/peterjeffryes/Documents/real-python/web2py/gluon/template.py", line 489, in extend\n    _super_nodes=super_nodes)\n  File "/Users/peterjeffryes/Documents/real-python/web2py/gluon/template.py", line 314, in __init__\n    self.parse(text)\n  File "/Users/peterjeffryes/Documents/real-python/web2py/gluon/template.py", line 760, in parse\n    self.extend(extend)\n  File "/Users/peterjeffryes/Documents/real-python/web2py/gluon/template.py", line 489, in extend\n    _super_nodes=super_nodes)\n  File "/Users/peterjeffryes/Documents/real-python/web2py/gluon/template.py", line 314, in __init__\n    self.parse(text)\n  File "/Users/peterjeffryes/Documents/real-python/web2py/gluon/template.py", line 760, in parse\n    self.extend(extend)\n  File "/Users/peterjeffryes/Documents/real-python/web2py/gluon/template.py", line 489, in extend\n    _super_nodes=super_nodes)\n  File "/Users/peterjeffryes/Documents/real-python/web2py/gluon/template.py", line 314, in __init__\n    self.parse(text)\n  File "/Users/peterjeffryes/Documents/real-python/web2py/gluon/template.py", line 760, in parse\n    self.extend(extend)\n  File "/Users/peterjeffryes/Documents/real-python/web2py/gluon/template.py", line 489, in extend\n    _super_nodes=super_nodes)\n  File "/Users/peterjeffryes/Documents/real-python/web2py/gluon/template.py", line 314, in __init__\n    self.parse(text)\n  File "/Users/peterjeffryes/Documents/real-python/web2py/gluon/template.py", line 760, in parse\n    self.extend(extend)\n  File "/Users/peterjeffryes/Documents/real-python/web2py/gluon/template.py", line 489, in extend\n    _super_nodes=super_nodes)\n  File "/Users/peterjeffryes/Documents/real-python/web2py/gluon/template.py", line 314, in __init__\n    self.parse(text)\n  File "/Users/peterjeffryes/Documents/real-python/web2py/gluon/template.py", line 760, in parse\n    self.extend(extend)\n  File "/Users/peterjeffryes/Documents/real-python/web2py/gluon/template.py", line 489, in extend\n    _super_nodes=super_nodes)\n  File "/Users/peterjeffryes/Documents/real-python/web2py/gluon/template.py", line 314, in __init__\n    self.parse(text)\n  File "/Users/peterjeffryes/Documents/real-python/web2py/gluon/template.py", line 760, in parse\n    self.extend(extend)\n  File "/Users/peterjeffryes/Documents/real-python/web2py/gluon/template.py", line 489, in extend\n    _super_nodes=super_nodes)\n  File "/Users/peterjeffryes/Documents/real-python/web2py/gluon/template.py", line 314, in __init__\n    self.parse(text)\n  File "/Users/peterjeffryes/Documents/real-python/web2py/gluon/template.py", line 760, in parse\n    self.extend(extend)\n  File "/Users/peterjeffryes/Documents/real-python/web2py/gluon/template.py", line 489, in extend\n    _super_nodes=super_nodes)\n  File "/Users/peterjeffryes/Documents/real-python/web2py/gluon/template.py", line 314, in __init__\n    self.parse(text)\n  File "/Users/peterjeffryes/Documents/real-python/web2py/gluon/template.py", line 760, in parse\n    self.extend(extend)\n  File "/Users/peterjeffryes/Documents/real-python/web2py/gluon/template.py", line 489, in extend\n    _super_nodes=super_nodes)\n  File "/Users/peterjeffryes/Documents/real-python/web2py/gluon/template.py", line 314, in __init__\n    self.parse(text)\n  File "/Users/peterjeffryes/Documents/real-python/web2py/gluon/template.py", line 760, in parse\n    self.extend(extend)\n  File "/Users/peterjeffryes/Documents/real-python/web2py/gluon/template.py", line 489, in extend\n    _super_nodes=super_nodes)\n  File "/Users/peterjeffryes/Documents/real-python/web2py/gluon/template.py", line 314, in __init__\n    self.parse(text)\n  File "/Users/peterjeffryes/Documents/real-python/web2py/gluon/template.py", line 760, in parse\n    self.extend(extend)\n  File "/Users/peterjeffryes/Documents/real-python/web2py/gluon/template.py", line 489, in extend\n    _super_nodes=super_nodes)\n  File "/Users/peterjeffryes/Documents/real-python/web2py/gluon/template.py", line 314, in __init__\n    self.parse(text)\n  File "/Users/peterjeffryes/Documents/real-python/web2py/gluon/template.py", line 760, in parse\n    self.extend(extend)\n  File "/Users/peterjeffryes/Documents/real-python/web2py/gluon/template.py", line 489, in extend\n    _super_nodes=super_nodes)\n  File "/Users/peterjeffryes/Documents/real-python/web2py/gluon/template.py", line 314, in __init__\n    self.parse(text)\n  File "/Users/peterjeffryes/Documents/real-python/web2py/gluon/template.py", line 760, in parse\n    self.extend(extend)\n  File "/Users/peterjeffryes/Documents/real-python/web2py/gluon/template.py", line 489, in extend\n    _super_nodes=super_nodes)\n  File "/Users/peterjeffryes/Documents/real-python/web2py/gluon/template.py", line 314, in __init__\n    self.parse(text)\n  File "/Users/peterjeffryes/Documents/real-python/web2py/gluon/template.py", line 760, in parse\n    self.extend(extend)\n  File "/Users/peterjeffryes/Documents/real-python/web2py/gluon/template.py", line 489, in extend\n    _super_nodes=super_nodes)\n  File "/Users/peterjeffryes/Documents/real-python/web2py/gluon/template.py", line 314, in __init__\n    self.parse(text)\n  File "/Users/peterjeffryes/Documents/real-python/web2py/gluon/template.py", line 760, in parse\n    self.extend(extend)\n  File "/Users/peterjeffryes/Documents/real-python/web2py/gluon/template.py", line 489, in extend\n    _super_nodes=super_nodes)\n  File "/Users/peterjeffryes/Documents/real-python/web2py/gluon/template.py", line 314, in __init__\n    self.parse(text)\n  File "/Users/peterjeffryes/Documents/real-python/web2py/gluon/template.py", line 760, in parse\n    self.extend(extend)\n  File "/Users/peterjeffryes/Documents/real-python/web2py/gluon/template.py", line 489, in extend\n    _super_nodes=super_nodes)\n  File "/Users/peterjeffryes/Documents/real-python/web2py/gluon/template.py", line 314, in __init__\n    self.parse(text)\n  File "/Users/peterjeffryes/Documents/real-python/web2py/gluon/template.py", line 760, in parse\n    self.extend(extend)\n  File "/Users/peterjeffryes/Documents/real-python/web2py/gluon/template.py", line 489, in extend\n    _super_nodes=super_nodes)\n  File "/Users/peterjeffryes/Documents/real-python/web2py/gluon/template.py", line 314, in __init__\n    self.parse(text)\n  File "/Users/peterjeffryes/Documents/real-python/web2py/gluon/template.py", line 760, in parse\n    self.extend(extend)\n  File "/Users/peterjeffryes/Documents/real-python/web2py/gluon/template.py", line 489, in extend\n    _super_nodes=super_nodes)\n  File "/Users/peterjeffryes/Documents/real-python/web2py/gluon/template.py", line 314, in __init__\n    self.parse(text)\n  File "/Users/peterjeffryes/Documents/real-python/web2py/gluon/template.py", line 760, in parse\n    self.extend(extend)\n  File "/Users/peterjeffryes/Documents/real-python/web2py/gluon/template.py", line 489, in extend\n    _super_nodes=super_nodes)\n  File "/Users/peterjeffryes/Documents/real-python/web2py/gluon/template.py", line 314, in __init__\n    self.parse(text)\n  File "/Users/peterjeffryes/Documents/real-python/web2py/gluon/template.py", line 760, in parse\n    self.extend(extend)\n  File "/Users/peterjeffryes/Documents/real-python/web2py/gluon/template.py", line 489, in extend\n    _super_nodes=super_nodes)\n  File "/Users/peterjeffryes/Documents/real-python/web2py/gluon/template.py", line 314, in __init__\n    self.parse(text)\n  File "/Users/peterjeffryes/Documents/real-python/web2py/gluon/template.py", line 760, in parse\n    self.extend(extend)\n  File "/Users/peterjeffryes/Documents/real-python/web2py/gluon/template.py", line 489, in extend\n    _super_nodes=super_nodes)\n  File "/Users/peterjeffryes/Documents/real-python/web2py/gluon/template.py", line 314, in __init__\n    self.parse(text)\n  File "/Users/peterjeffryes/Documents/real-python/web2py/gluon/template.py", line 760, in parse\n    self.extend(extend)\n  File "/Users/peterjeffryes/Documents/real-python/web2py/gluon/template.py", line 489, in extend\n    _super_nodes=super_nodes)\n  File "/Users/peterjeffryes/Documents/real-python/web2py/gluon/template.py", line 314, in __init__\n    self.parse(text)\n  File "/Users/peterjeffryes/Documents/real-python/web2py/gluon/template.py", line 760, in parse\n    self.extend(extend)\n  File "/Users/peterjeffryes/Documents/real-python/web2py/gluon/template.py", line 489, in extend\n    _super_nodes=super_nodes)\n  File "/Users/peterjeffryes/Documents/real-python/web2py/gluon/template.py", line 314, in __init__\n    self.parse(text)\n  File "/Users/peterjeffryes/Documents/real-python/web2py/gluon/template.py", line 760, in parse\n    self.extend(extend)\n  File "/Users/peterjeffryes/Documents/real-python/web2py/gluon/template.py", line 489, in extend\n    _super_nodes=super_nodes)\n  File "/Users/peterjeffryes/Documents/real-python/web2py/gluon/template.py", line 314, in __init__\n    self.parse(text)\n  File "/Users/peterjeffryes/Documents/real-python/web2py/gluon/template.py", line 760, in parse\n    self.extend(extend)\n  File "/Users/peterjeffryes/Documents/real-python/web2py/gluon/template.py", line 489, in extend\n    _super_nodes=super_nodes)\n  File "/Users/peterjeffryes/Documents/real-python/web2py/gluon/template.py", line 314, in __init__\n    self.parse(text)\n  File "/Users/peterjeffryes/Documents/real-python/web2py/gluon/template.py", line 760, in parse\n    self.extend(extend)\n  File "/Users/peterjeffryes/Documents/real-python/web2py/gluon/template.py", line 489, in extend\n    _super_nodes=super_nodes)\n  File "/Users/peterjeffryes/Documents/real-python/web2py/gluon/template.py", line 314, in __init__\n    self.parse(text)\n  File "/Users/peterjeffryes/Documents/real-python/web2py/gluon/template.py", line 760, in parse\n    self.extend(extend)\n  File "/Users/peterjeffryes/Documents/real-python/web2py/gluon/template.py", line 489, in extend\n    _super_nodes=super_nodes)\n  File "/Users/peterjeffryes/Documents/real-python/web2py/gluon/template.py", line 314, in __init__\n    self.parse(text)\n  File "/Users/peterjeffryes/Documents/real-python/web2py/gluon/template.py", line 760, in parse\n    self.extend(extend)\n  File "/Users/peterjeffryes/Documents/real-python/web2py/gluon/template.py", line 489, in extend\n    _super_nodes=super_nodes)\n  File "/Users/peterjeffryes/Documents/real-python/web2py/gluon/template.py", line 314, in __init__\n    self.parse(text)\n  File "/Users/peterjeffryes/Documents/real-python/web2py/gluon/template.py", line 760, in parse\n    self.extend(extend)\n  File "/Users/peterjeffryes/Documents/real-python/web2py/gluon/template.py", line 489, in extend\n    _super_nodes=super_nodes)\n  File "/Users/peterjeffryes/Documents/real-python/web2py/gluon/template.py", line 314, in __init__\n    self.parse(text)\n  File "/Users/peterjeffryes/Documents/real-python/web2py/gluon/template.py", line 760, in parse\n    self.extend(extend)\n  File "/Users/peterjeffryes/Documents/real-python/web2py/gluon/template.py", line 489, in extend\n    _super_nodes=super_nodes)\n  File "/Users/peterjeffryes/Documents/real-python/web2py/gluon/template.py", line 314, in __init__\n    self.parse(text)\n  File "/Users/peterjeffryes/Documents/real-python/web2py/gluon/template.py", line 760, in parse\n    self.extend(extend)\n  File "/Users/peterjeffryes/Documents/real-python/web2py/gluon/template.py", line 489, in extend\n    _super_nodes=super_nodes)\n  File "/Users/peterjeffryes/Documents/real-python/web2py/gluon/template.py", line 314, in __init__\n    self.parse(text)\n  File "/Users/peterjeffryes/Documents/real-python/web2py/gluon/template.py", line 760, in parse\n    self.extend(extend)\n  File "/Users/peterjeffryes/Documents/real-python/web2py/gluon/template.py", line 489, in extend\n    _super_nodes=super_nodes)\n  File "/Users/peterjeffryes/Documents/real-python/web2py/gluon/template.py", line 314, in __init__\n    self.parse(text)\n  File "/Users/peterjeffryes/Documents/real-python/web2py/gluon/template.py", line 760, in parse\n    self.extend(extend)\n  File "/Users/peterjeffryes/Documents/real-python/web2py/gluon/template.py", line 489, in extend\n    _super_nodes=super_nodes)\n  File "/Users/peterjeffryes/Documents/real-python/web2py/gluon/template.py", line 314, in __init__\n    self.parse(text)\n  File "/Users/peterjeffryes/Documents/real-python/web2py/gluon/template.py", line 760, in parse\n    self.extend(extend)\n  File "/Users/peterjeffryes/Documents/real-python/web2py/gluon/template.py", line 489, in extend\n    _super_nodes=super_nodes)\n  File "/Users/peterjeffryes/Documents/real-python/web2py/gluon/template.py", line 314, in __init__\n    self.parse(text)\n  File "/Users/peterjeffryes/Documents/real-python/web2py/gluon/template.py", line 760, in parse\n    self.extend(extend)\n  File "/Users/peterjeffryes/Documents/real-python/web2py/gluon/template.py", line 489, in extend\n    _super_nodes=super_nodes)\n  File "/Users/peterjeffryes/Documents/real-python/web2py/gluon/template.py", line 314, in __init__\n    self.parse(text)\n  File "/Users/peterjeffryes/Documents/real-python/web2py/gluon/template.py", line 760, in parse\n    self.extend(extend)\n  File "/Users/peterjeffryes/Documents/real-python/web2py/gluon/template.py", line 489, in extend\n    _super_nodes=super_nodes)\n  File "/Users/peterjeffryes/Documents/real-python/web2py/gluon/template.py", line 314, in __init__\n    self.parse(text)\n  File "/Users/peterjeffryes/Documents/real-python/web2py/gluon/template.py", line 760, in parse\n    self.extend(extend)\n  File "/Users/peterjeffryes/Documents/real-python/web2py/gluon/template.py", line 489, in extend\n    _super_nodes=super_nodes)\n  File "/Users/peterjeffryes/Documents/real-python/web2py/gluon/template.py", line 314, in __init__\n    self.parse(text)\n  File "/Users/peterjeffryes/Documents/real-python/web2py/gluon/template.py", line 760, in parse\n    self.extend(extend)\n  File "/Users/peterjeffryes/Documents/real-python/web2py/gluon/template.py", line 489, in extend\n    _super_nodes=super_nodes)\n  File "/Users/peterjeffryes/Documents/real-python/web2py/gluon/template.py", line 314, in __init__\n    self.parse(text)\n  File "/Users/peterjeffryes/Documents/real-python/web2py/gluon/template.py", line 679, in parse\n    self.include(top, value)\n  File "/Users/peterjeffryes/Documents/real-python/web2py/gluon/template.py", line 464, in include\n    delimiters=self.delimiters)\n  File "/Users/peterjeffryes/Documents/real-python/web2py/gluon/template.py", line 278, in __init__\n    if delimiters != self.default_delimiters:\nRuntimeError: maximum recursion depth exceeded in cmp\n'
p9
s.