(dp1
S'output'
p2
S"<type 'exceptions.TypeError'> tuple indices must be integers, not str"
p3
sS'layer'
p4
S'/Users/michaelherman/Documents/RealPython/web2py/start/applications/movie_suggest/controllers/default.py'
p5
sS'code'
p6
S'import requests\nimport json\n\ndef index():\n  return dict()\n\ndef grab_movies():\n    movies=[]\n    YOUR_OWN_KEY = \'abha3gx3p42czdrswkejmyxm\'\n    url = requests.get("http://api.rottentomatoes.com/api/public/v1.0/lists/movies/in_theaters.json?apikey=%s" %\n        (YOUR_OWN_KEY,))\n    binary = url.content\n    output = json.loads(binary)\n    movies = output[\'movies\']\n    for movie in movies:\n        movies.append(pulse(movie["title"]))\n    movies.sort()\n    return TABLE([TR(v) for movie in movies]).xml()\n\ndef pulse(movie):\n    text = movie.split(\'_\')\n    text = \' \'.join(text)\n    url = \'http://text-processing.com/api/sentiment/\'\n    data = {\'text\': text}\n    r = requests.post(url, data=data)\n    binary = r.content\n    output = json.loads(binary)\n    label = output["label"]\n    pos = output["probability"]["pos"]\n    neg = output["probability"]["neg"]\n    neutral = output["probability"]["neutral"]\n    return text, label, pos, neg, neutral\n\nresponse._vars=response._caller(grab_movies)\n'
p7
sS'snapshot'
p8
(dp9
S'exception'
p10
(dp11
S'__hash__'
p12
S"<method-wrapper '__hash__' of exceptions.TypeError object>"
p13
sS'__setattr__'
p14
S"<method-wrapper '__setattr__' of exceptions.TypeError object>"
p15
sS'__reduce_ex__'
p16
S'<built-in method __reduce_ex__ of exceptions.TypeError object>'
p17
sS'__getslice__'
p18
S"<method-wrapper '__getslice__' of exceptions.TypeError object>"
p19
sS'__getitem__'
p20
S"<method-wrapper '__getitem__' of exceptions.TypeError object>"
p21
sS'__setstate__'
p22
S'<built-in method __setstate__ of exceptions.TypeError object>'
p23
sS'args'
p24
S"('tuple indices must be integers, not str',)"
p25
sS'__reduce__'
p26
S'<built-in method __reduce__ of exceptions.TypeError object>'
p27
sS'__str__'
p28
S"<method-wrapper '__str__' of exceptions.TypeError object>"
p29
sS'__format__'
p30
S'<built-in method __format__ of exceptions.TypeError object>'
p31
sS'__getattribute__'
p32
S"<method-wrapper '__getattribute__' of exceptions.TypeError object>"
p33
sS'__class__'
p34
S"<type 'exceptions.TypeError'>"
p35
sS'__unicode__'
p36
S'<built-in method __unicode__ of exceptions.TypeError object>'
p37
sS'__delattr__'
p38
S"<method-wrapper '__delattr__' of exceptions.TypeError object>"
p39
sS'__subclasshook__'
p40
S'<built-in method __subclasshook__ of type object>'
p41
sS'__repr__'
p42
S"<method-wrapper '__repr__' of exceptions.TypeError object>"
p43
sS'__dict__'
p44
S'{}'
p45
sS'__sizeof__'
p46
S'<built-in method __sizeof__ of exceptions.TypeError object>'
p47
sS'__doc__'
p48
S"'Inappropriate argument type.'"
p49
sS'__init__'
p50
S"<method-wrapper '__init__' of exceptions.TypeError object>"
p51
sS'__new__'
p52
S'<built-in method __new__ of type object>'
p53
ssS'evalue'
p54
S'tuple indices must be integers, not str'
p55
sS'request'
p56
cgluon.html
XML_unpickle
p57
(S's}\xbd\x00\x00<div><table><tr><td style="font-weight:bold;vertical-align:top;">ajax</td><td style="vertical-align:top;">:</td><td><div>True</div></td></tr><tr><td style="font-weight:bold;vertical-align:top;">application</td><td style="vertical-align:top;">:</td><td><div>movie_suggest</div></td></tr><tr><td style="font-weight:bold;vertical-align:top;">args</td><td style="vertical-align:top;">:</td><td><div><table></table></div></td></tr><tr><td style="font-weight:bold;vertical-align:top;">cid</td><td style="vertical-align:top;">:</td><td><div>None</div></td></tr><tr><td style="font-weight:bold;vertical-align:top;">client</td><td style="vertical-align:top;">:</td><td><div>127.0.0.1</div></td></tr><tr><td style="font-weight:bold;vertical-align:top;">controller</td><td style="vertical-align:top;">:</td><td><div>default</div></td></tr><tr><td style="font-weight:bold;vertical-align:top;">cookies</td><td style="vertical-align:top;">:</td><td><div><table><tr><td style="font-weight:bold;vertical-align:top;">csrftoken</td><td style="vertical-align:top;">:</td><td><div>YHrc5kgVZ6q5NdM5v4sY4fQmKdJiBYW2<table><tr><td style="font-weight:bold;vertical-align:top;">comment</td><td style="vertical-align:top;">:</td><td><div></div></td></tr><tr><td style="font-weight:bold;vertical-align:top;">domain</td><td style="vertical-align:top;">:</td><td><div></div></td></tr><tr><td style="font-weight:bold;vertical-align:top;">expires</td><td style="vertical-align:top;">:</td><td><div></div></td></tr><tr><td style="font-weight:bold;vertical-align:top;">httponly</td><td style="vertical-align:top;">:</td><td><div></div></td></tr><tr><td style="font-weight:bold;vertical-align:top;">max-age</td><td style="vertical-align:top;">:</td><td><div></div></td></tr><tr><td style="font-weight:bold;vertical-align:top;">path</td><td style="vertical-align:top;">:</td><td><div></div></td></tr><tr><td style="font-weight:bold;vertical-align:top;">secure</td><td style="vertical-align:top;">:</td><td><div></div></td></tr><tr><td style="font-weight:bold;vertical-align:top;">version</td><td style="vertical-align:top;">:</td><td><div></div></td></tr></table></div></td></tr><tr><td style="font-weight:bold;vertical-align:top;">gs_u_GSN-134810-Q</td><td style="vertical-align:top;">:</td><td><div>1086228593:2567:5000:1387208451136<table><tr><td style="font-weight:bold;vertical-align:top;">comment</td><td style="vertical-align:top;">:</td><td><div></div></td></tr><tr><td style="font-weight:bold;vertical-align:top;">domain</td><td style="vertical-align:top;">:</td><td><div></div></td></tr><tr><td style="font-weight:bold;vertical-align:top;">expires</td><td style="vertical-align:top;">:</td><td><div></div></td></tr><tr><td style="font-weight:bold;vertical-align:top;">httponly</td><td style="vertical-align:top;">:</td><td><div></div></td></tr><tr><td style="font-weight:bold;vertical-align:top;">max-age</td><td style="vertical-align:top;">:</td><td><div></div></td></tr><tr><td style="font-weight:bold;vertical-align:top;">path</td><td style="vertical-align:top;">:</td><td><div></div></td></tr><tr><td style="font-weight:bold;vertical-align:top;">secure</td><td style="vertical-align:top;">:</td><td><div></div></td></tr><tr><td style="font-weight:bold;vertical-align:top;">version</td><td style="vertical-align:top;">:</td><td><div></div></td></tr></table></div></td></tr><tr><td style="font-weight:bold;vertical-align:top;">hb_8647</td><td style="vertical-align:top;">:</td><td><div>fv%3A1387042243%7Clv%3A1393552434%7Clf%3A75%7Cnv%3A148%7Cpu%3Ahttp%3A//localhost%3A9292/archive%7Cdt%3A2014-2-28%7Cts%3A1393552434%7Cdv%3Acomputer%7Cls%3A0%5E8937%7Cfv%3A1387044418%7Clv%3A1393552434%7Clf%3A75%7Cnv%3A144%7Cnc%3A1%7Cls%3A0%5E9868%7Cfv%3A1387042329%7Clv%3A1387042417%7Clf%3A0%7Cnv%3A2%7Cls%3A0%5E10070%7Cfv%3A1387042243%7Clv%3A1387042243%7Clf%3A0%7Cnv%3A1%7Cnc%3A2%5E<table><tr><td style="font-weight:bold;vertical-align:top;">comment</td><td style="vertical-align:top;">:</td><td><div></div></td></tr><tr><td style="font-weight:bold;vertical-align:top;">domain</td><td style="vertical-align:top;">:</td><td><div></div></td></tr><tr><td style="font-weight:bold;vertical-align:top;">expires</td><td style="vertical-align:top;">:</td><td><div></div></td></tr><tr><td style="font-weight:bold;vertical-align:top;">httponly</td><td style="vertical-align:top;">:</td><td><div></div></td></tr><tr><td style="font-weight:bold;vertical-align:top;">max-age</td><td style="vertical-align:top;">:</td><td><div></div></td></tr><tr><td style="font-weight:bold;vertical-align:top;">path</td><td style="vertical-align:top;">:</td><td><div></div></td></tr><tr><td style="font-weight:bold;vertical-align:top;">secure</td><td style="vertical-align:top;">:</td><td><div></div></td></tr><tr><td style="font-weight:bold;vertical-align:top;">version</td><td style="vertical-align:top;">:</td><td><div></div></td></tr></table></div></td></tr><tr><td style="font-weight:bold;vertical-align:top;">hblid</td><td style="vertical-align:top;">:</td><td><div>fZETcqs8uRC7qROB8b1Li8zwBWpEIfEg<table><tr><td style="font-weight:bold;vertical-align:top;">comment</td><td style="vertical-align:top;">:</td><td><div></div></td></tr><tr><td style="font-weight:bold;vertical-align:top;">domain</td><td style="vertical-align:top;">:</td><td><div></div></td></tr><tr><td style="font-weight:bold;vertical-align:top;">expires</td><td style="vertical-align:top;">:</td><td><div></div></td></tr><tr><td style="font-weight:bold;vertical-align:top;">httponly</td><td style="vertical-align:top;">:</td><td><div></div></td></tr><tr><td style="font-weight:bold;vertical-align:top;">max-age</td><td style="vertical-align:top;">:</td><td><div></div></td></tr><tr><td style="font-weight:bold;vertical-align:top;">path</td><td style="vertical-align:top;">:</td><td><div></div></td></tr><tr><td style="font-weight:bold;vertical-align:top;">secure</td><td style="vertical-align:top;">:</td><td><div></div></td></tr><tr><td style="font-weight:bold;vertical-align:top;">version</td><td style="vertical-align:top;">:</td><td><div></div></td></tr></table></div></td></tr><tr><td style="font-weight:bold;vertical-align:top;">hbuid</td><td style="vertical-align:top;">:</td><td><div>966740eb-82e9-4f3f-da04-3489c0906278<table><tr><td style="font-weight:bold;vertical-align:top;">comment</td><td style="vertical-align:top;">:</td><td><div></div></td></tr><tr><td style="font-weight:bold;vertical-align:top;">domain</td><td style="vertical-align:top;">:</td><td><div></div></td></tr><tr><td style="font-weight:bold;vertical-align:top;">expires</td><td style="vertical-align:top;">:</td><td><div></div></td></tr><tr><td style="font-weight:bold;vertical-align:top;">httponly</td><td style="vertical-align:top;">:</td><td><div></div></td></tr><tr><td style="font-weight:bold;vertical-align:top;">max-age</td><td style="vertical-align:top;">:</td><td><div></div></td></tr><tr><td style="font-weight:bold;vertical-align:top;">path</td><td style="vertical-align:top;">:</td><td><div></div></td></tr><tr><td style="font-weight:bold;vertical-align:top;">secure</td><td style="vertical-align:top;">:</td><td><div></div></td></tr><tr><td style="font-weight:bold;vertical-align:top;">version</td><td style="vertical-align:top;">:</td><td><div></div></td></tr></table></div></td></tr><tr><td style="font-weight:bold;vertical-align:top;">ki_r</td><td style="vertical-align:top;">:</td><td><div>http%3A//www.studiopress.com/responsive/<table><tr><td style="font-weight:bold;vertical-align:top;">comment</td><td style="vertical-align:top;">:</td><td><div></div></td></tr><tr><td style="font-weight:bold;vertical-align:top;">domain</td><td style="vertical-align:top;">:</td><td><div></div></td></tr><tr><td style="font-weight:bold;vertical-align:top;">expires</td><td style="vertical-align:top;">:</td><td><div></div></td></tr><tr><td style="font-weight:bold;vertical-align:top;">httponly</td><td style="vertical-align:top;">:</td><td><div></div></td></tr><tr><td style="font-weight:bold;vertical-align:top;">max-age</td><td style="vertical-align:top;">:</td><td><div></div></td></tr><tr><td style="font-weight:bold;vertical-align:top;">path</td><td style="vertical-align:top;">:</td><td><div></div></td></tr><tr><td style="font-weight:bold;vertical-align:top;">secure</td><td style="vertical-align:top;">:</td><td><div></div></td></tr><tr><td style="font-weight:bold;vertical-align:top;">version</td><td style="vertical-align:top;">:</td><td><div></div></td></tr></table></div></td></tr><tr><td style="font-weight:bold;vertical-align:top;">ki_s</td><td style="vertical-align:top;">:</td><td><div>104856%3A1.0.0.0.2<table><tr><td style="font-weight:bold;vertical-align:top;">comment</td><td style="vertical-align:top;">:</td><td><div></div></td></tr><tr><td style="font-weight:bold;vertical-align:top;">domain</td><td style="vertical-align:top;">:</td><td><div></div></td></tr><tr><td style="font-weight:bold;vertical-align:top;">expires</td><td style="vertical-align:top;">:</td><td><div></div></td></tr><tr><td style="font-weight:bold;vertical-align:top;">httponly</td><td style="vertical-align:top;">:</td><td><div></div></td></tr><tr><td style="font-weight:bold;vertical-align:top;">max-age</td><td style="vertical-align:top;">:</td><td><div></div></td></tr><tr><td style="font-weight:bold;vertical-align:top;">path</td><td style="vertical-align:top;">:</td><td><div></div></td></tr><tr><td style="font-weight:bold;vertical-align:top;">secure</td><td style="vertical-align:top;">:</td><td><div></div></td></tr><tr><td style="font-weight:bold;vertical-align:top;">version</td><td style="vertical-align:top;">:</td><td><div></div></td></tr></table></div></td></tr><tr><td style="font-weight:bold;vertical-align:top;">ki_t</td><td style="vertical-align:top;">:</td><td><div>1376708438541%3B1378596851965%3B1378597463465%3B12%3B508<table><tr><td style="font-weight:bold;vertical-align:top;">comment</td><td style="vertical-align:top;">:</td><td><div></div></td></tr><tr><td style="font-weight:bold;vertical-align:top;">domain</td><td style="vertical-align:top;">:</td><td><div></div></td></tr><tr><td style="font-weight:bold;vertical-align:top;">expires</td><td style="vertical-align:top;">:</td><td><div></div></td></tr><tr><td style="font-weight:bold;vertical-align:top;">httponly</td><td style="vertical-align:top;">:</td><td><div></div></td></tr><tr><td style="font-weight:bold;vertical-align:top;">max-age</td><td style="vertical-align:top;">:</td><td><div></div></td></tr><tr><td style="font-weight:bold;vertical-align:top;">path</td><td style="vertical-align:top;">:</td><td><div></div></td></tr><tr><td style="font-weight:bold;vertical-align:top;">secure</td><td style="vertical-align:top;">:</td><td><div></div></td></tr><tr><td style="font-weight:bold;vertical-align:top;">version</td><td style="vertical-align:top;">:</td><td><div></div></td></tr></table></div></td></tr><tr><td style="font-weight:bold;vertical-align:top;">ki_u</td><td style="vertical-align:top;">:</td><td><div>06a812c1-bc04-f6c2-b016-1a3befb25413<table><tr><td style="font-weight:bold;vertical-align:top;">comment</td><td style="vertical-align:top;">:</td><td><div></div></td></tr><tr><td style="font-weight:bold;vertical-align:top;">domain</td><td style="vertical-align:top;">:</td><td><div></div></td></tr><tr><td style="font-weight:bold;vertical-align:top;">expires</td><td style="vertical-align:top;">:</td><td><div></div></td></tr><tr><td style="font-weight:bold;vertical-align:top;">httponly</td><td style="vertical-align:top;">:</td><td><div></div></td></tr><tr><td style="font-weight:bold;vertical-align:top;">max-age</td><td style="vertical-align:top;">:</td><td><div></div></td></tr><tr><td style="font-weight:bold;vertical-align:top;">path</td><td style="vertical-align:top;">:</td><td><div></div></td></tr><tr><td style="font-weight:bold;vertical-align:top;">secure</td><td style="vertical-align:top;">:</td><td><div></div></td></tr><tr><td style="font-weight:bold;vertical-align:top;">version</td><td style="vertical-align:top;">:</td><td><div></div></td></tr></table></div></td></tr><tr><td style="font-weight:bold;vertical-align:top;">mp_2e7e305fa31e103ddf55c385184242fb_mixpanel</td><td style="vertical-align:top;">:</td><td><div>%7B%22distinct_id%22%3A%20%22140f56049d06ac-0dc242002-6b1c2f76-fa000-140f56049d1a24%22%2C%22%24initial_referrer%22%3A%20%22%24direct%22%2C%22%24initial_referring_domain%22%3A%20%22%24direct%22%7D<table><tr><td style="font-weight:bold;vertical-align:top;">comment</td><td style="vertical-align:top;">:</td><td><div></div></td></tr><tr><td style="font-weight:bold;vertical-align:top;">domain</td><td style="vertical-align:top;">:</td><td><div></div></td></tr><tr><td style="font-weight:bold;vertical-align:top;">expires</td><td style="vertical-align:top;">:</td><td><div></div></td></tr><tr><td style="font-weight:bold;vertical-align:top;">httponly</td><td style="vertical-align:top;">:</td><td><div></div></td></tr><tr><td style="font-weight:bold;vertical-align:top;">max-age</td><td style="vertical-align:top;">:</td><td><div></div></td></tr><tr><td style="font-weight:bold;vertical-align:top;">path</td><td style="vertical-align:top;">:</td><td><div></div></td></tr><tr><td style="font-weight:bold;vertical-align:top;">secure</td><td style="vertical-align:top;">:</td><td><div></div></td></tr><tr><td style="font-weight:bold;vertical-align:top;">version</td><td style="vertical-align:top;">:</td><td><div></div></td></tr></table></div></td></tr><tr><td style="font-weight:bold;vertical-align:top;">mp_b624fde25239a4a01562224719ce9ca8_mixpanel</td><td style="vertical-align:top;">:</td><td><div>%7B%22distinct_id%22%3A%20%2214249f2540f16c-0a3da7e69-171f405f-fa000-14249f25410554%22%2C%22%24initial_referrer%22%3A%20%22%24direct%22%2C%22%24initial_referring_domain%22%3A%20%22%24direct%22%7D<table><tr><td style="font-weight:bold;vertical-align:top;">comment</td><td style="vertical-align:top;">:</td><td><div></div></td></tr><tr><td style="font-weight:bold;vertical-align:top;">domain</td><td style="vertical-align:top;">:</td><td><div></div></td></tr><tr><td style="font-weight:bold;vertical-align:top;">expires</td><td style="vertical-align:top;">:</td><td><div></div></td></tr><tr><td style="font-weight:bold;vertical-align:top;">httponly</td><td style="vertical-align:top;">:</td><td><div></div></td></tr><tr><td style="font-weight:bold;vertical-align:top;">max-age</td><td style="vertical-align:top;">:</td><td><div></div></td></tr><tr><td style="font-weight:bold;vertical-align:top;">path</td><td style="vertical-align:top;">:</td><td><div></div></td></tr><tr><td style="font-weight:bold;vertical-align:top;">secure</td><td style="vertical-align:top;">:</td><td><div></div></td></tr><tr><td style="font-weight:bold;vertical-align:top;">version</td><td style="vertical-align:top;">:</td><td><div></div></td></tr></table></div></td></tr><tr><td style="font-weight:bold;vertical-align:top;">olfsk</td><td style="vertical-align:top;">:</td><td><div>olfsk21966148889623582<table><tr><td style="font-weight:bold;vertical-align:top;">comment</td><td style="vertical-align:top;">:</td><td><div></div></td></tr><tr><td style="font-weight:bold;vertical-align:top;">domain</td><td style="vertical-align:top;">:</td><td><div></div></td></tr><tr><td style="font-weight:bold;vertical-align:top;">expires</td><td style="vertical-align:top;">:</td><td><div></div></td></tr><tr><td style="font-weight:bold;vertical-align:top;">httponly</td><td style="vertical-align:top;">:</td><td><div></div></td></tr><tr><td style="font-weight:bold;vertical-align:top;">max-age</td><td style="vertical-align:top;">:</td><td><div></div></td></tr><tr><td style="font-weight:bold;vertical-align:top;">path</td><td style="vertical-align:top;">:</td><td><div></div></td></tr><tr><td style="font-weight:bold;vertical-align:top;">secure</td><td style="vertical-align:top;">:</td><td><div></div></td></tr><tr><td style="font-weight:bold;vertical-align:top;">version</td><td style="vertical-align:top;">:</td><td><div></div></td></tr></table></div></td></tr><tr><td style="font-weight:bold;vertical-align:top;">session</td><td style="vertical-align:top;">:</td><td><div>eyJjc3JmX3Rva2VuIjp7IiBiIjoiTURrMFlURTBOMlJtTVRJNE9HSTRPVE5rWXpZelpERXdaamswTmpsaFpUWmlZakF3T0RkbU1BPT0ifX0.BfQFPQ.79wTL0apRG3pLyo27Talgndyuvs<table><tr><td style="font-weight:bold;vertical-align:top;">comment</td><td style="vertical-align:top;">:</td><td><div></div></td></tr><tr><td style="font-weight:bold;vertical-align:top;">domain</td><td style="vertical-align:top;">:</td><td><div></div></td></tr><tr><td style="font-weight:bold;vertical-align:top;">expires</td><td style="vertical-align:top;">:</td><td><div></div></td></tr><tr><td style="font-weight:bold;vertical-align:top;">httponly</td><td style="vertical-align:top;">:</td><td><div></div></td></tr><tr><td style="font-weight:bold;vertical-align:top;">max-age</td><td style="vertical-align:top;">:</td><td><div></div></td></tr><tr><td style="font-weight:bold;vertical-align:top;">path</td><td style="vertical-align:top;">:</td><td><div></div></td></tr><tr><td style="font-weight:bold;vertical-align:top;">secure</td><td style="vertical-align:top;">:</td><td><div></div></td></tr><tr><td style="font-weight:bold;vertical-align:top;">version</td><td style="vertical-align:top;">:</td><td><div></div></td></tr></table></div></td></tr><tr><td style="font-weight:bold;vertical-align:top;">session_id_admin</td><td style="vertical-align:top;">:</td><td><div>127.0.0.1-d12c3243-63ca-4d93-a588-daeb55430e0f<table><tr><td style="font-weight:bold;vertical-align:top;">comment</td><td style="vertical-align:top;">:</td><td><div></div></td></tr><tr><td style="font-weight:bold;vertical-align:top;">domain</td><td style="vertical-align:top;">:</td><td><div></div></td></tr><tr><td style="font-weight:bold;vertical-align:top;">expires</td><td style="vertical-align:top;">:</td><td><div></div></td></tr><tr><td style="font-weight:bold;vertical-align:top;">httponly</td><td style="vertical-align:top;">:</td><td><div></div></td></tr><tr><td style="font-weight:bold;vertical-align:top;">max-age</td><td style="vertical-align:top;">:</td><td><div></div></td></tr><tr><td style="font-weight:bold;vertical-align:top;">path</td><td style="vertical-align:top;">:</td><td><div></div></td></tr><tr><td style="font-weight:bold;vertical-align:top;">secure</td><td style="vertical-align:top;">:</td><td><div></div></td></tr><tr><td style="font-weight:bold;vertical-align:top;">version</td><td style="vertical-align:top;">:</td><td><div></div></td></tr></table></div></td></tr><tr><td style="font-weight:bold;vertical-align:top;">session_id_movie_suggest</td><td style="vertical-align:top;">:</td><td><div>127.0.0.1-7bec9725-9509-44a2-8b00-0146512f97e1<table><tr><td style="font-weight:bold;vertical-align:top;">comment</td><td style="vertical-align:top;">:</td><td><div></div></td></tr><tr><td style="font-weight:bold;vertical-align:top;">domain</td><td style="vertical-align:top;">:</td><td><div></div></td></tr><tr><td style="font-weight:bold;vertical-align:top;">expires</td><td style="vertical-align:top;">:</td><td><div></div></td></tr><tr><td style="font-weight:bold;vertical-align:top;">httponly</td><td style="vertical-align:top;">:</td><td><div></div></td></tr><tr><td style="font-weight:bold;vertical-align:top;">max-age</td><td style="vertical-align:top;">:</td><td><div></div></td></tr><tr><td style="font-weight:bold;vertical-align:top;">path</td><td style="vertical-align:top;">:</td><td><div></div></td></tr><tr><td style="font-weight:bold;vertical-align:top;">secure</td><td style="vertical-align:top;">:</td><td><div></div></td></tr><tr><td style="font-weight:bold;vertical-align:top;">version</td><td style="vertical-align:top;">:</td><td><div></div></td></tr></table></div></td></tr><tr><td style="font-weight:bold;vertical-align:top;">session_id_pulse</td><td style="vertical-align:top;">:</td><td><div>127.0.0.1-fd79b463-4172-40ab-a121-5decf79a3524<table><tr><td style="font-weight:bold;vertical-align:top;">comment</td><td style="vertical-align:top;">:</td><td><div></div></td></tr><tr><td style="font-weight:bold;vertical-align:top;">domain</td><td style="vertical-align:top;">:</td><td><div></div></td></tr><tr><td style="font-weight:bold;vertical-align:top;">expires</td><td style="vertical-align:top;">:</td><td><div></div></td></tr><tr><td style="font-weight:bold;vertical-align:top;">httponly</td><td style="vertical-align:top;">:</td><td><div></div></td></tr><tr><td style="font-weight:bold;vertical-align:top;">max-age</td><td style="vertical-align:top;">:</td><td><div></div></td></tr><tr><td style="font-weight:bold;vertical-align:top;">path</td><td style="vertical-align:top;">:</td><td><div></div></td></tr><tr><td style="font-weight:bold;vertical-align:top;">secure</td><td style="vertical-align:top;">:</td><td><div></div></td></tr><tr><td style="font-weight:bold;vertical-align:top;">version</td><td style="vertical-align:top;">:</td><td><div></div></td></tr></table></div></td></tr><tr><td style="font-weight:bold;vertical-align:top;">session_id_pulsed</td><td style="vertical-align:top;">:</td><td><div>127.0.0.1-8d664309-7652-416d-9885-6a4023d9e8e4<table><tr><td style="font-weight:bold;vertical-align:top;">comment</td><td style="vertical-align:top;">:</td><td><div></div></td></tr><tr><td style="font-weight:bold;vertical-align:top;">domain</td><td style="vertical-align:top;">:</td><td><div></div></td></tr><tr><td style="font-weight:bold;vertical-align:top;">expires</td><td style="vertical-align:top;">:</td><td><div></div></td></tr><tr><td style="font-weight:bold;vertical-align:top;">httponly</td><td style="vertical-align:top;">:</td><td><div></div></td></tr><tr><td style="font-weight:bold;vertical-align:top;">max-age</td><td style="vertical-align:top;">:</td><td><div></div></td></tr><tr><td style="font-weight:bold;vertical-align:top;">path</td><td style="vertical-align:top;">:</td><td><div></div></td></tr><tr><td style="font-weight:bold;vertical-align:top;">secure</td><td style="vertical-align:top;">:</td><td><div></div></td></tr><tr><td style="font-weight:bold;vertical-align:top;">version</td><td style="vertical-align:top;">:</td><td><div></div></td></tr></table></div></td></tr><tr><td style="font-weight:bold;vertical-align:top;">session_id_welcome</td><td style="vertical-align:top;">:</td><td><div>127.0.0.1-3f99d825-e7d3-415d-8de2-cd52e2f08ccb<table><tr><td style="font-weight:bold;vertical-align:top;">comment</td><td style="vertical-align:top;">:</td><td><div></div></td></tr><tr><td style="font-weight:bold;vertical-align:top;">domain</td><td style="vertical-align:top;">:</td><td><div></div></td></tr><tr><td style="font-weight:bold;vertical-align:top;">expires</td><td style="vertical-align:top;">:</td><td><div></div></td></tr><tr><td style="font-weight:bold;vertical-align:top;">httponly</td><td style="vertical-align:top;">:</td><td><div></div></td></tr><tr><td style="font-weight:bold;vertical-align:top;">max-age</td><td style="vertical-align:top;">:</td><td><div></div></td></tr><tr><td style="font-weight:bold;vertical-align:top;">path</td><td style="vertical-align:top;">:</td><td><div></div></td></tr><tr><td style="font-weight:bold;vertical-align:top;">secure</td><td style="vertical-align:top;">:</td><td><div></div></td></tr><tr><td style="font-weight:bold;vertical-align:top;">version</td><td style="vertical-align:top;">:</td><td><div></div></td></tr></table></div></td></tr><tr><td style="font-weight:bold;vertical-align:top;">sessionid</td><td style="vertical-align:top;">:</td><td><div>mgel8arfhfy5j7v9gg8wvy3ae3nsz552<table><tr><td style="font-weight:bold;vertical-align:top;">comment</td><td style="vertical-align:top;">:</td><td><div></div></td></tr><tr><td style="font-weight:bold;vertical-align:top;">domain</td><td style="vertical-align:top;">:</td><td><div></div></td></tr><tr><td style="font-weight:bold;vertical-align:top;">expires</td><td style="vertical-align:top;">:</td><td><div></div></td></tr><tr><td style="font-weight:bold;vertical-align:top;">httponly</td><td style="vertical-align:top;">:</td><td><div></div></td></tr><tr><td style="font-weight:bold;vertical-align:top;">max-age</td><td style="vertical-align:top;">:</td><td><div></div></td></tr><tr><td style="font-weight:bold;vertical-align:top;">path</td><td style="vertical-align:top;">:</td><td><div></div></td></tr><tr><td style="font-weight:bold;vertical-align:top;">secure</td><td style="vertical-align:top;">:</td><td><div></div></td></tr><tr><td style="font-weight:bold;vertical-align:top;">version</td><td style="vertical-align:top;">:</td><td><div></div></td></tr></table></div></td></tr></table></div></td></tr><tr><td style="font-weight:bold;vertical-align:top;">env</td><td style="vertical-align:top;">:</td><td><div><table><tr><td style="font-weight:bold;vertical-align:top;">CONTENT_LENGTH</td><td style="vertical-align:top;">:</td><td><div>0</div></td></tr><tr><td style="font-weight:bold;vertical-align:top;">HTTP_ACCEPT</td><td style="vertical-align:top;">:</td><td><div>*/*</div></td></tr><tr><td style="font-weight:bold;vertical-align:top;">HTTP_ACCEPT_ENCODING</td><td style="vertical-align:top;">:</td><td><div>gzip,deflate,sdch</div></td></tr><tr><td style="font-weight:bold;vertical-align:top;">HTTP_ACCEPT_LANGUAGE</td><td style="vertical-align:top;">:</td><td><div>en-US,en;q=0.8,fr;q=0.6</div></td></tr><tr><td style="font-weight:bold;vertical-align:top;">HTTP_CONNECTION</td><td style="vertical-align:top;">:</td><td><div>keep-alive</div></td></tr><tr><td style="font-weight:bold;vertical-align:top;">HTTP_CONTENT_LENGTH</td><td style="vertical-align:top;">:</td><td><div>0</div></td></tr><tr><td style="font-weight:bold;vertical-align:top;">HTTP_COOKIE</td><td style="vertical-align:top;">:</td><td><div>olfsk=olfsk21966148889623582; hblid=fZETcqs8uRC7qROB8b1Li8zwBWpEIfEg; ki_u=06a812c1-bc04-f6c2-b016-1a3befb25413; ki_s=104856%3A1.0.0.0.2; ki_r=http%3A//www.studiopress.com/responsive/; mp_2e7e305fa31e103ddf55c385184242fb_mixpanel=%7B%22distinct_id%22%3A%20%22140f56049d06ac-0dc242002-6b1c2f76-fa000-140f56049d1a24%22%2C%22%24initial_referrer%22%3A%20%22%24direct%22%2C%22%24initial_referring_domain%22%3A%20%22%24direct%22%7D; ki_t=1376708438541%3B1378596851965%3B1378597463465%3B12%3B508; mp_b624fde25239a4a01562224719ce9ca8_mixpanel=%7B%22distinct_id%22%3A%20%2214249f2540f16c-0a3da7e69-171f405f-fa000-14249f25410554%22%2C%22%24initial_referrer%22%3A%20%22%24direct%22%2C%22%24initial_referring_domain%22%3A%20%22%24direct%22%7D; hbuid=966740eb-82e9-4f3f-da04-3489c0906278; gs_u_GSN-134810-Q=1086228593:2567:5000:1387208451136; hb_8647=fv%3A1387042243%7Clv%3A1393552434%7Clf%3A75%7Cnv%3A148%7Cpu%3Ahttp%3A//localhost%3A9292/archive%7Cdt%3A2014-2-28%7Cts%3A1393552434%7Cdv%3Acomputer%7Cls%3A0%5E8937%7Cfv%3A1387044418%7Clv%3A1393552434%7Clf%3A75%7Cnv%3A144%7Cnc%3A1%7Cls%3A0%5E9868%7Cfv%3A1387042329%7Clv%3A1387042417%7Clf%3A0%7Cnv%3A2%7Cls%3A0%5E10070%7Cfv%3A1387042243%7Clv%3A1387042243%7Clf%3A0%7Cnv%3A1%7Cnc%3A2%5E; _atshc={&quot;http://localhost:3001/&quot;:307}; session=eyJjc3JmX3Rva2VuIjp7IiBiIjoiTURrMFlURTBOMlJtTVRJNE9HSTRPVE5rWXpZelpERXdaamswTmpsaFpUWmlZakF3T0RkbU1BPT0ifX0.BfQFPQ.79wTL0apRG3pLyo27Talgndyuvs; session_id_pulsed=127.0.0.1-8d664309-7652-416d-9885-6a4023d9e8e4; session_id_pulse=127.0.0.1-fd79b463-4172-40ab-a121-5decf79a3524; __atuvc=14%7C6%2C3%7C7%2C14%7C8%2C22%7C9%2C1%7C10; sessionid=mgel8arfhfy5j7v9gg8wvy3ae3nsz552; csrftoken=YHrc5kgVZ6q5NdM5v4sY4fQmKdJiBYW2; session_id_welcome=127.0.0.1-3f99d825-e7d3-415d-8de2-cd52e2f08ccb; session_id_admin=127.0.0.1-d12c3243-63ca-4d93-a588-daeb55430e0f; session_id_movie_suggest=127.0.0.1-7bec9725-9509-44a2-8b00-0146512f97e1</div></td></tr><tr><td style="font-weight:bold;vertical-align:top;">HTTP_HOST</td><td style="vertical-align:top;">:</td><td><div>localhost:8000</div></td></tr><tr><td style="font-weight:bold;vertical-align:top;">HTTP_ORIGIN</td><td style="vertical-align:top;">:</td><td><div>http://localhost:8000</div></td></tr><tr><td style="font-weight:bold;vertical-align:top;">HTTP_REFERER</td><td style="vertical-align:top;">:</td><td><div>http://localhost:8000/movie_suggest/default/index</div></td></tr><tr><td style="font-weight:bold;vertical-align:top;">HTTP_USER_AGENT</td><td style="vertical-align:top;">:</td><td><div>Mozilla/5.0 (Macintosh; Intel Mac OS X 10_8_5) AppleWebKit/537.36 (KHTML, like Gecko) Chrome/33.0.1750.117 Safari/537.36</div></td></tr><tr><td style="font-weight:bold;vertical-align:top;">HTTP_X_REQUESTED_WITH</td><td style="vertical-align:top;">:</td><td><div>XMLHttpRequest</div></td></tr><tr><td style="font-weight:bold;vertical-align:top;">PATH_INFO</td><td style="vertical-align:top;">:</td><td><div>/movie_suggest/default/grab_movies</div></td></tr><tr><td style="font-weight:bold;vertical-align:top;">QUERY_STRING</td><td style="vertical-align:top;">:</td><td><div></div></td></tr><tr><td style="font-weight:bold;vertical-align:top;">REMOTE_ADDR</td><td style="vertical-align:top;">:</td><td><div>127.0.0.1</div></td></tr><tr><td style="font-weight:bold;vertical-align:top;">REMOTE_PORT</td><td style="vertical-align:top;">:</td><td><div>56779</div></td></tr><tr><td style="font-weight:bold;vertical-align:top;">REQUEST_METHOD</td><td style="vertical-align:top;">:</td><td><div>POST</div></td></tr><tr><td style="font-weight:bold;vertical-align:top;">SCRIPT_NAME</td><td style="vertical-align:top;">:</td><td><div></div></td></tr><tr><td style="font-weight:bold;vertical-align:top;">SERVER_NAME</td><td style="vertical-align:top;">:</td><td><div>Michaels-MacBook-Pro-2.local</div></td></tr><tr><td style="font-weight:bold;vertical-align:top;">SERVER_PORT</td><td style="vertical-align:top;">:</td><td><div>8000</div></td></tr><tr><td style="font-weight:bold;vertical-align:top;">SERVER_PROTOCOL</td><td style="vertical-align:top;">:</td><td><div>HTTP/1.1</div></td></tr><tr><td style="font-weight:bold;vertical-align:top;">SERVER_SOFTWARE</td><td style="vertical-align:top;">:</td><td><div>Rocket 1.2.6</div></td></tr><tr><td style="font-weight:bold;vertical-align:top;">app_folders</td><td style="vertical-align:top;">:</td><td><div>set([&#x27;/Users/michaelherman/Documents/RealPython/web2py/start/applications/admin/&#x27;, &#x27;/Users/michaelherman/Documents/RealPython/web2py/start/applications/welcome/&#x27;, &#x27;/Users/michaelherman/Documents/RealPython/web2py/start/applications/movie_suggest/&#x27;])</div></td></tr><tr><td style="font-weight:bold;vertical-align:top;">applications_parent</td><td style="vertical-align:top;">:</td><td><div>/Users/michaelherman/Documents/RealPython/web2py/start</div></td></tr><tr><td style="font-weight:bold;vertical-align:top;">cmd_args</td><td style="vertical-align:top;">:</td><td><div><table></table></div></td></tr><tr><td style="font-weight:bold;vertical-align:top;">cmd_options</td><td style="vertical-align:top;">:</td><td><div>&lt;Values at 0x102055050: {&#x27;verbose&#x27;: False, &#x27;ip&#x27;: &#x27;127.0.0.1&#x27;, &#x27;debuglevel&#x27;: 30, &#x27;with_scheduler&#x27;: False, &#x27;ips&#x27;: [&#x27;192.168.50.1&#x27;, &#x27;fe80::22c9:d0ff:fedf:a449%en1&#x27;, &#x27;192.168.10.199&#x27;], &#x27;shutdown_timeout&#x27;: 5, &#x27;taskbar&#x27;: False, &#x27;with_coverage&#x27;: False, &#x27;port&#x27;: 8000, &#x27;maxthreads&#x27;: None, &#x27;softcron&#x27;: False, &#x27;server_name&#x27;: &#x27;Michaels-MacBook-Pro-2.local&#x27;, &#x27;bpython&#x27;: False, &#x27;nogui&#x27;: False, &#x27;pid_filename&#x27;: &#x27;httpserver.pid&#x27;, &#x27;extcron&#x27;: False, &#x27;runcron&#x27;: False, &#x27;run_system_tests&#x27;: False, &#x27;test&#x27;: None, &#x27;folder&#x27;: &#x27;/Users/michaelherman/Documents/RealPython/web2py/start&#x27;, &#x27;config&#x27;: &#x27;&#x27;, &#x27;minthreads&#x27;: None, &#x27;shell&#x27;: None, &#x27;run&#x27;: &#x27;&#x27;, &#x27;log_filename&#x27;: &#x27;httpserver.log&#x27;, &#x27;profiler_dir&#x27;: None, &#x27;args&#x27;: [&#x27;&#x27;], &#x27;socket_timeout&#x27;: 5, &#x27;ssl_ca_certificate&#x27;: None, &#x27;scheduler&#x27;: None, &#x27;interfaces&#x27;: None, &#x27;ssl_private_key&#x27;: &#x27;&#x27;, &#x27;scheduler_groups&#x27;: None, &#x27;password&#x27;: &#x27;&lt;ask&gt;&#x27;, &#x27;request_queue_size&#x27;: 5, &#x27;ssl_certificate&#x27;: &#x27;&#x27;, &#x27;cronjob&#x27;: False, &#x27;numthreads&#x27;: None, &#x27;quiet&#x27;: False, &#x27;import_models&#x27;: False, &#x27;timeout&#x27;: 10, &#x27;plain&#x27;: False, &#x27;nobanner&#x27;: False}&gt;</div></td></tr><tr><td style="font-weight:bold;vertical-align:top;">content_length</td><td style="vertical-align:top;">:</td><td><div>0</div></td></tr><tr><td style="font-weight:bold;vertical-align:top;">db_sessions</td><td style="vertical-align:top;">:</td><td><div>set([])</div></td></tr><tr><td style="font-weight:bold;vertical-align:top;">debugging</td><td style="vertical-align:top;">:</td><td><div>True</div></td></tr><tr><td style="font-weight:bold;vertical-align:top;">gluon_parent</td><td style="vertical-align:top;">:</td><td><div>/Users/michaelherman/Documents/RealPython/web2py/start</div></td></tr><tr><td style="font-weight:bold;vertical-align:top;">http_accept</td><td style="vertical-align:top;">:</td><td><div>*/*</div></td></tr><tr><td style="font-weight:bold;vertical-align:top;">http_accept_encoding</td><td style="vertical-align:top;">:</td><td><div>gzip,deflate,sdch</div></td></tr><tr><td style="font-weight:bold;vertical-align:top;">http_accept_language</td><td style="vertical-align:top;">:</td><td><div>en-US,en;q=0.8,fr;q=0.6</div></td></tr><tr><td style="font-weight:bold;vertical-align:top;">http_connection</td><td style="vertical-align:top;">:</td><td><div>keep-alive</div></td></tr><tr><td style="font-weight:bold;vertical-align:top;">http_content_length</td><td style="vertical-align:top;">:</td><td><div>0</div></td></tr><tr><td style="font-weight:bold;vertical-align:top;">http_cookie</td><td style="vertical-align:top;">:</td><td><div>olfsk=olfsk21966148889623582; hblid=fZETcqs8uRC7qROB8b1Li8zwBWpEIfEg; ki_u=06a812c1-bc04-f6c2-b016-1a3befb25413; ki_s=104856%3A1.0.0.0.2; ki_r=http%3A//www.studiopress.com/responsive/; mp_2e7e305fa31e103ddf55c385184242fb_mixpanel=%7B%22distinct_id%22%3A%20%22140f56049d06ac-0dc242002-6b1c2f76-fa000-140f56049d1a24%22%2C%22%24initial_referrer%22%3A%20%22%24direct%22%2C%22%24initial_referring_domain%22%3A%20%22%24direct%22%7D; ki_t=1376708438541%3B1378596851965%3B1378597463465%3B12%3B508; mp_b624fde25239a4a01562224719ce9ca8_mixpanel=%7B%22distinct_id%22%3A%20%2214249f2540f16c-0a3da7e69-171f405f-fa000-14249f25410554%22%2C%22%24initial_referrer%22%3A%20%22%24direct%22%2C%22%24initial_referring_domain%22%3A%20%22%24direct%22%7D; hbuid=966740eb-82e9-4f3f-da04-3489c0906278; gs_u_GSN-134810-Q=1086228593:2567:5000:1387208451136; hb_8647=fv%3A1387042243%7Clv%3A1393552434%7Clf%3A75%7Cnv%3A148%7Cpu%3Ahttp%3A//localhost%3A9292/archive%7Cdt%3A2014-2-28%7Cts%3A1393552434%7Cdv%3Acomputer%7Cls%3A0%5E8937%7Cfv%3A1387044418%7Clv%3A1393552434%7Clf%3A75%7Cnv%3A144%7Cnc%3A1%7Cls%3A0%5E9868%7Cfv%3A1387042329%7Clv%3A1387042417%7Clf%3A0%7Cnv%3A2%7Cls%3A0%5E10070%7Cfv%3A1387042243%7Clv%3A1387042243%7Clf%3A0%7Cnv%3A1%7Cnc%3A2%5E; _atshc={&quot;http://localhost:3001/&quot;:307}; session=eyJjc3JmX3Rva2VuIjp7IiBiIjoiTURrMFlURTBOMlJtTVRJNE9HSTRPVE5rWXpZelpERXdaamswTmpsaFpUWmlZakF3T0RkbU1BPT0ifX0.BfQFPQ.79wTL0apRG3pLyo27Talgndyuvs; session_id_pulsed=127.0.0.1-8d664309-7652-416d-9885-6a4023d9e8e4; session_id_pulse=127.0.0.1-fd79b463-4172-40ab-a121-5decf79a3524; __atuvc=14%7C6%2C3%7C7%2C14%7C8%2C22%7C9%2C1%7C10; sessionid=mgel8arfhfy5j7v9gg8wvy3ae3nsz552; csrftoken=YHrc5kgVZ6q5NdM5v4sY4fQmKdJiBYW2; session_id_welcome=127.0.0.1-3f99d825-e7d3-415d-8de2-cd52e2f08ccb; session_id_admin=127.0.0.1-d12c3243-63ca-4d93-a588-daeb55430e0f; session_id_movie_suggest=127.0.0.1-7bec9725-9509-44a2-8b00-0146512f97e1</div></td></tr><tr><td style="font-weight:bold;vertical-align:top;">http_host</td><td style="vertical-align:top;">:</td><td><div>localhost:8000</div></td></tr><tr><td style="font-weight:bold;vertical-align:top;">http_origin</td><td style="vertical-align:top;">:</td><td><div>http://localhost:8000</div></td></tr><tr><td style="font-weight:bold;vertical-align:top;">http_referer</td><td style="vertical-align:top;">:</td><td><div>http://localhost:8000/movie_suggest/default/index</div></td></tr><tr><td style="font-weight:bold;vertical-align:top;">http_user_agent</td><td style="vertical-align:top;">:</td><td><div>Mozilla/5.0 (Macintosh; Intel Mac OS X 10_8_5) AppleWebKit/537.36 (KHTML, like Gecko) Chrome/33.0.1750.117 Safari/537.36</div></td></tr><tr><td style="font-weight:bold;vertical-align:top;">http_x_requested_with</td><td style="vertical-align:top;">:</td><td><div>XMLHttpRequest</div></td></tr><tr><td style="font-weight:bold;vertical-align:top;">is_jython</td><td style="vertical-align:top;">:</td><td><div>False</div></td></tr><tr><td style="font-weight:bold;vertical-align:top;">is_pypy</td><td style="vertical-align:top;">:</td><td><div>False</div></td></tr><tr><td style="font-weight:bold;vertical-align:top;">is_source</td><td style="vertical-align:top;">:</td><td><div>True</div></td></tr><tr><td style="font-weight:bold;vertical-align:top;">local_hosts</td><td style="vertical-align:top;">:</td><td><div><table><tr><td><div>192.168.10.199</div></td></tr><tr><td><div>::ffff:127.0.0.1</div></td></tr><tr><td><div>::1</div></td></tr><tr><td><div>192.168.50.1</div></td></tr><tr><td><div>fe80::22c9:d0ff:fedf:a449%en1</div></td></tr><tr><td><div>Michaels-MacBook-Pro-2.local</div></td></tr><tr><td><div>127.0.0.1</div></td></tr></table></div></td></tr><tr><td style="font-weight:bold;vertical-align:top;">path_info</td><td style="vertical-align:top;">:</td><td><div>/movie_suggest/default/grab_movies</div></td></tr><tr><td style="font-weight:bold;vertical-align:top;">query_string</td><td style="vertical-align:top;">:</td><td><div></div></td></tr><tr><td style="font-weight:bold;vertical-align:top;">remote_addr</td><td style="vertical-align:top;">:</td><td><div>127.0.0.1</div></td></tr><tr><td style="font-weight:bold;vertical-align:top;">remote_port</td><td style="vertical-align:top;">:</td><td><div>56779</div></td></tr><tr><td style="font-weight:bold;vertical-align:top;">request_method</td><td style="vertical-align:top;">:</td><td><div>POST</div></td></tr><tr><td style="font-weight:bold;vertical-align:top;">request_uri</td><td style="vertical-align:top;">:</td><td><div>/movie_suggest/default/grab_movies</div></td></tr><tr><td style="font-weight:bold;vertical-align:top;">script_name</td><td style="vertical-align:top;">:</td><td><div></div></td></tr><tr><td style="font-weight:bold;vertical-align:top;">server_name</td><td style="vertical-align:top;">:</td><td><div>Michaels-MacBook-Pro-2.local</div></td></tr><tr><td style="font-weight:bold;vertical-align:top;">server_port</td><td style="vertical-align:top;">:</td><td><div>8000</div></td></tr><tr><td style="font-weight:bold;vertical-align:top;">server_protocol</td><td style="vertical-align:top;">:</td><td><div>HTTP/1.1</div></td></tr><tr><td style="font-weight:bold;vertical-align:top;">server_software</td><td style="vertical-align:top;">:</td><td><div>Rocket 1.2.6</div></td></tr><tr><td style="font-weight:bold;vertical-align:top;">web2py_path</td><td style="vertical-align:top;">:</td><td><div>/Users/michaelherman/Documents/RealPython/web2py/start</div></td></tr><tr><td style="font-weight:bold;vertical-align:top;">web2py_version</td><td style="vertical-align:top;">:</td><td><div>2.8.2-stable+timestamp.2013.11.28.13.54.07</div></td></tr><tr><td style="font-weight:bold;vertical-align:top;">wsgi.errors</td><td style="vertical-align:top;">:</td><td><div>&lt;open file &#x27;&lt;stderr&gt;&#x27;, mode &#x27;w&#x27; at 0x10028a1e0&gt;</div></td></tr><tr><td style="font-weight:bold;vertical-align:top;">wsgi.file_wrapper</td><td style="vertical-align:top;">:</td><td><div>&lt;class wsgiref.util.FileWrapper at 0x101dae738&gt;</div></td></tr><tr><td style="font-weight:bold;vertical-align:top;">wsgi.input</td><td style="vertical-align:top;">:</td><td><div>&lt;socket._fileobject object at 0x10c07abd0&gt;</div></td></tr><tr><td style="font-weight:bold;vertical-align:top;">wsgi.multiprocess</td><td style="vertical-align:top;">:</td><td><div>False</div></td></tr><tr><td style="font-weight:bold;vertical-align:top;">wsgi.multithread</td><td style="vertical-align:top;">:</td><td><div>True</div></td></tr><tr><td style="font-weight:bold;vertical-align:top;">wsgi.run_once</td><td style="vertical-align:top;">:</td><td><div>False</div></td></tr><tr><td style="font-weight:bold;vertical-align:top;">wsgi.url_scheme</td><td style="vertical-align:top;">:</td><td><div>http</div></td></tr><tr><td style="font-weight:bold;vertical-align:top;">wsgi.version</td><td style="vertical-align:top;">:</td><td><div><table><tr><td><div>1</div></td></tr><tr><td><div>0</div></td></tr></table></div></td></tr><tr><td style="font-weight:bold;vertical-align:top;">wsgi_errors</td><td style="vertical-align:top;">:</td><td><div>&lt;open file &#x27;&lt;stderr&gt;&#x27;, mode &#x27;w&#x27; at 0x10028a1e0&gt;</div></td></tr><tr><td style="font-weight:bold;vertical-align:top;">wsgi_file_wrapper</td><td style="vertical-align:top;">:</td><td><div>&lt;class wsgiref.util.FileWrapper at 0x101dae738&gt;</div></td></tr><tr><td style="font-weight:bold;vertical-align:top;">wsgi_input</td><td style="vertical-align:top;">:</td><td><div>&lt;socket._fileobject object at 0x10c07abd0&gt;</div></td></tr><tr><td style="font-weight:bold;vertical-align:top;">wsgi_multiprocess</td><td style="vertical-align:top;">:</td><td><div>False</div></td></tr><tr><td style="font-weight:bold;vertical-align:top;">wsgi_multithread</td><td style="vertical-align:top;">:</td><td><div>True</div></td></tr><tr><td style="font-weight:bold;vertical-align:top;">wsgi_run_once</td><td style="vertical-align:top;">:</td><td><div>False</div></td></tr><tr><td style="font-weight:bold;vertical-align:top;">wsgi_url_scheme</td><td style="vertical-align:top;">:</td><td><div>http</div></td></tr><tr><td style="font-weight:bold;vertical-align:top;">wsgi_version</td><td style="vertical-align:top;">:</td><td><div><table><tr><td><div>1</div></td></tr><tr><td><div>0</div></td></tr></table></div></td></tr></table></div></td></tr><tr><td style="font-weight:bold;vertical-align:top;">extension</td><td style="vertical-align:top;">:</td><td><div>html</div></td></tr><tr><td style="font-weight:bold;vertical-align:top;">folder</td><td style="vertical-align:top;">:</td><td><div>/Users/michaelherman/Documents/RealPython/web2py/start/applications/movie_suggest/</div></td></tr><tr><td style="font-weight:bold;vertical-align:top;">function</td><td style="vertical-align:top;">:</td><td><div>grab_movies</div></td></tr><tr><td style="font-weight:bold;vertical-align:top;">global_settings</td><td style="vertical-align:top;">:</td><td><div><table><tr><td style="font-weight:bold;vertical-align:top;">app_folders</td><td style="vertical-align:top;">:</td><td><div>set([&#x27;/Users/michaelherman/Documents/RealPython/web2py/start/applications/admin/&#x27;, &#x27;/Users/michaelherman/Documents/RealPython/web2py/start/applications/welcome/&#x27;, &#x27;/Users/michaelherman/Documents/RealPython/web2py/start/applications/movie_suggest/&#x27;])</div></td></tr><tr><td style="font-weight:bold;vertical-align:top;">applications_parent</td><td style="vertical-align:top;">:</td><td><div>/Users/michaelherman/Documents/RealPython/web2py/start</div></td></tr><tr><td style="font-weight:bold;vertical-align:top;">cmd_args</td><td style="vertical-align:top;">:</td><td><div><table></table></div></td></tr><tr><td style="font-weight:bold;vertical-align:top;">cmd_options</td><td style="vertical-align:top;">:</td><td><div>&lt;Values at 0x102055050: {&#x27;verbose&#x27;: False, &#x27;ip&#x27;: &#x27;127.0.0.1&#x27;, &#x27;debuglevel&#x27;: 30, &#x27;with_scheduler&#x27;: False, &#x27;ips&#x27;: [&#x27;192.168.50.1&#x27;, &#x27;fe80::22c9:d0ff:fedf:a449%en1&#x27;, &#x27;192.168.10.199&#x27;], &#x27;shutdown_timeout&#x27;: 5, &#x27;taskbar&#x27;: False, &#x27;with_coverage&#x27;: False, &#x27;port&#x27;: 8000, &#x27;maxthreads&#x27;: None, &#x27;softcron&#x27;: False, &#x27;server_name&#x27;: &#x27;Michaels-MacBook-Pro-2.local&#x27;, &#x27;bpython&#x27;: False, &#x27;nogui&#x27;: False, &#x27;pid_filename&#x27;: &#x27;httpserver.pid&#x27;, &#x27;extcron&#x27;: False, &#x27;runcron&#x27;: False, &#x27;run_system_tests&#x27;: False, &#x27;test&#x27;: None, &#x27;folder&#x27;: &#x27;/Users/michaelherman/Documents/RealPython/web2py/start&#x27;, &#x27;config&#x27;: &#x27;&#x27;, &#x27;minthreads&#x27;: None, &#x27;shell&#x27;: None, &#x27;run&#x27;: &#x27;&#x27;, &#x27;log_filename&#x27;: &#x27;httpserver.log&#x27;, &#x27;profiler_dir&#x27;: None, &#x27;args&#x27;: [&#x27;&#x27;], &#x27;socket_timeout&#x27;: 5, &#x27;ssl_ca_certificate&#x27;: None, &#x27;scheduler&#x27;: None, &#x27;interfaces&#x27;: None, &#x27;ssl_private_key&#x27;: &#x27;&#x27;, &#x27;scheduler_groups&#x27;: None, &#x27;password&#x27;: &#x27;&lt;ask&gt;&#x27;, &#x27;request_queue_size&#x27;: 5, &#x27;ssl_certificate&#x27;: &#x27;&#x27;, &#x27;cronjob&#x27;: False, &#x27;numthreads&#x27;: None, &#x27;quiet&#x27;: False, &#x27;import_models&#x27;: False, &#x27;timeout&#x27;: 10, &#x27;plain&#x27;: False, &#x27;nobanner&#x27;: False}&gt;</div></td></tr><tr><td style="font-weight:bold;vertical-align:top;">db_sessions</td><td style="vertical-align:top;">:</td><td><div>set([])</div></td></tr><tr><td style="font-weight:bold;vertical-align:top;">debugging</td><td style="vertical-align:top;">:</td><td><div>True</div></td></tr><tr><td style="font-weight:bold;vertical-align:top;">gluon_parent</td><td style="vertical-align:top;">:</td><td><div>/Users/michaelherman/Documents/RealPython/web2py/start</div></td></tr><tr><td style="font-weight:bold;vertical-align:top;">is_jython</td><td style="vertical-align:top;">:</td><td><div>False</div></td></tr><tr><td style="font-weight:bold;vertical-align:top;">is_pypy</td><td style="vertical-align:top;">:</td><td><div>False</div></td></tr><tr><td style="font-weight:bold;vertical-align:top;">is_source</td><td style="vertical-align:top;">:</td><td><div>True</div></td></tr><tr><td style="font-weight:bold;vertical-align:top;">local_hosts</td><td style="vertical-align:top;">:</td><td><div><table><tr><td><div>192.168.10.199</div></td></tr><tr><td><div>::ffff:127.0.0.1</div></td></tr><tr><td><div>::1</div></td></tr><tr><td><div>192.168.50.1</div></td></tr><tr><td><div>fe80::22c9:d0ff:fedf:a449%en1</div></td></tr><tr><td><div>Michaels-MacBook-Pro-2.local</div></td></tr><tr><td><div>127.0.0.1</div></td></tr></table></div></td></tr><tr><td style="font-weight:bold;vertical-align:top;">web2py_version</td><td style="vertical-align:top;">:</td><td><div>2.8.2-stable+timestamp.2013.11.28.13.54.07</div></td></tr></table></div></td></tr><tr><td style="font-weight:bold;vertical-align:top;">is_https</td><td style="vertical-align:top;">:</td><td><div>False</div></td></tr><tr><td style="font-weight:bold;vertical-align:top;">is_local</td><td style="vertical-align:top;">:</td><td><div>True</div></td></tr><tr><td style="font-weight:bold;vertical-align:top;">is_restful</td><td style="vertical-align:top;">:</td><td><div>False</div></td></tr><tr><td style="font-weight:bold;vertical-align:top;">now</td><td style="vertical-align:top;">:</td><td><div>datetime.datetime(2014, 3, 3, 17, 34, 54, 102838)</div></td></tr><tr><td style="font-weight:bold;vertical-align:top;">raw_args</td><td style="vertical-align:top;">:</td><td><div></div></td></tr><tr><td style="font-weight:bold;vertical-align:top;">raw_extension</td><td style="vertical-align:top;">:</td><td><div>None</div></td></tr><tr><td style="font-weight:bold;vertical-align:top;">url</td><td style="vertical-align:top;">:</td><td><div>/movie_suggest/default/grab_movies</div></td></tr><tr><td style="font-weight:bold;vertical-align:top;">utcnow</td><td style="vertical-align:top;">:</td><td><div>datetime.datetime(2014, 3, 4, 0, 34, 54, 102849)</div></td></tr><tr><td style="font-weight:bold;vertical-align:top;">uuid</td><td style="vertical-align:top;">:</td><td><div>movie_suggest/127.0.0.1.2014-03-03.17-34-54.423b2086-0328-4852-9655-b368cfd58e54</div></td></tr><tr><td style="font-weight:bold;vertical-align:top;">wsgi</td><td style="vertical-align:top;">:</td><td><div>&lt;gluon.main.LazyWSGI object at 0x10be4f250&gt;</div></td></tr></table></div>'
tRp58
sS'frames'
p59
(lp60
(dp61
S'file'
p62
S'/Users/michaelherman/Documents/RealPython/web2py/start/gluon/restricted.py'
p63
sS'dump'
p64
(dp65
S'environment'
p66
S"{'A': <class 'gluon.html.A'>, 'ANY_OF': <class 'gluon.validators.ANY_OF'>, 'Auth': <class 'gluon.tools.Auth'>, 'B': <class 'gluon.html.B'>, 'BEAUTIFY': <class 'gluon.html.BEAUTIFY'>, 'BODY': <class 'gluon.html.BODY'>, 'BR': <class 'gluon.html.BR'>, 'BUTTON': <class 'gluon.html.BUTTON'>, 'CAT': <class 'gluon.html.CAT'>, 'CENTER': <class 'gluon.html.CENTER'>, ...}"
p67
sS'ccode'
p68
S'<code object <module> at 0x107d2bd30, file "/Use...ns/movie_suggest/controllers/default.py", line 1>'
p69
ssS'lnum'
p70
I217
sS'lines'
p71
(dp72
I212
S'    try:'
p73
sI213
S'        if isinstance(code, types.CodeType):'
p74
sI214
S'            ccode = code'
p75
sI215
S'        else:'
p76
sI216
S'            ccode = compile2(code, layer)'
p77
sI217
S'        exec ccode in environment'
p78
sI218
S'    except HTTP:'
p79
sI219
S'        raise'
p80
sI220
S'    except RestrictedError:'
p81
sI221
S'        # do not encapsulate (obfuscate) the original RestrictedError'
p82
ssS'call'
p83
S"(code='import requests\\nimport json\\n\\ndef index():\\n  retu...al\\n\\nresponse._vars=response._caller(grab_movies)\\n', environment={'A': <class 'gluon.html.A'>, 'ANY_OF': <class 'gluon.validators.ANY_OF'>, 'Auth': <class 'gluon.tools.Auth'>, 'B': <class 'gluon.html.B'>, 'BEAUTIFY': <class 'gluon.html.BEAUTIFY'>, 'BODY': <class 'gluon.html.BODY'>, 'BR': <class 'gluon.html.BR'>, 'BUTTON': <class 'gluon.html.BUTTON'>, 'CAT': <class 'gluon.html.CAT'>, 'CENTER': <class 'gluon.html.CENTER'>, ...}, layer='/Users/michaelherman/Documents/RealPython/web2py...applications/movie_suggest/controllers/default.py')"
p84
sS'func'
p85
S'restricted'
p86
sa(dp87
g62
S'/Users/michaelherman/Documents/RealPython/web2py/start/applications/movie_suggest/controllers/default.py'
p88
sg64
(dp89
sg70
I34
sg71
(dp90
I32
S'    return text, label, pos, neg, neutral'
p91
sI23
S"    url = 'http://text-processing.com/api/sentiment/'"
p92
sI24
S"    data = {'text': text}"
p93
sI25
S'    r = requests.post(url, data=data)'
p94
sI26
S'    binary = r.content'
p95
sI27
S'    output = json.loads(binary)'
p96
sI28
S'    label = output["label"]'
p97
sI29
S'    pos = output["probability"]["pos"]'
p98
sI30
S'    neg = output["probability"]["neg"]'
p99
sI31
S'    neutral = output["probability"]["neutral"]'
p100
ssg83
S'()'
p101
sg85
S'<module>'
p102
sa(dp103
g62
S'/Users/michaelherman/Documents/RealPython/web2py/start/gluon/globals.py'
p104
sg64
(dp105
S'self'
p106
S'undefined'
p107
sS'f'
S'<function grab_movies>'
p108
ssg70
I372
sg71
(dp109
I367
S'        self.menu = []             # used by the default view layout'
p110
sI368
S'        self.files = []            # used by web2py_ajax.html'
p111
sI369
S'        self.generic_patterns = []  # patterns to allow generic views'
p112
sI370
S"        self.delimiters = ('{{', '}}')"
p113
sI371
S'        self._vars = None'
p114
sI372
S'        self._caller = lambda f: f()'
p115
sI373
S'        self._view_environment = None'
p116
sI374
S'        self._custom_commit = None'
p117
sI375
S'        self._custom_rollback = None'
p118
sI376
S''
ssg83
S'(f=<function grab_movies>)'
p119
sg85
S'<lambda>'
p120
sa(dp121
g62
S'/Users/michaelherman/Documents/RealPython/web2py/start/applications/movie_suggest/controllers/default.py'
p122
sg64
(dp123
S'movies'
p124
S'[{u\'abridged_cast\': [{u\'characters\': [u\'Emmet\'], u\'id\': u\'770692298\', u\'name\': u\'Chris Pratt\'}, {u\'characters\': [u\'Wyldstyle/Lucy\'], u\'id\': u\'162653584\', u\'name\': u\'Elizabeth Banks\'}, {u\'characters\': [u\'Batman\'], u\'id\': u\'335717464\', u\'name\': u\'Will Arnett\'}, {u\'characters\': [u\'President Business\'], u\'id\': u\'162652185\', u\'name\': u\'Will Ferrell\'}, {u\'characters\': [u\'Vitruvius\'], u\'id\': u\'162652224\', u\'name\': u\'Morgan Freeman\'}], u\'alternate_ids\': {u\'imdb\': u\'1490017\'}, u\'critics_consensus\': u\'Boasting beautiful animation, a charming voice...ry, The Lego Movie is colorful fun for all ages.\', u\'id\': u\'771305753\', u\'links\': {u\'alternate\': u\'http://www.rottentomatoes.com/m/the_lego_movie/\', u\'cast\': u\'http://api.rottentomatoes.com/api/public/v1.0/movies/771305753/cast.json\', u\'clips\': u\'http://api.rottentomatoes.com/api/public/v1.0/movies/771305753/clips.json\', u\'reviews\': u\'http://api.rottentomatoes.com/api/public/v1.0/movies/771305753/reviews.json\', u\'self\': u\'http://api.rottentomatoes.com/api/public/v1.0/movies/771305753.json\', u\'similar\': u\'http://api.rottentomatoes.com/api/public/v1.0/movies/771305753/similar.json\'}, u\'mpaa_rating\': u\'PG\', u\'posters\': {u\'detailed\': u\'http://content9.flixster.com/movie/11/17/20/11172079_det.jpg\', u\'original\': u\'http://content9.flixster.com/movie/11/17/20/11172079_ori.jpg\', u\'profile\': u\'http://content9.flixster.com/movie/11/17/20/11172079_pro.jpg\', u\'thumbnail\': u\'http://content9.flixster.com/movie/11/17/20/11172079_mob.jpg\'}, u\'ratings\': {u\'audience_rating\': u\'Upright\', u\'audience_score\': 91, u\'critics_rating\': u\'Certified Fresh\', u\'critics_score\': 96}, u\'release_dates\': {u\'theater\': u\'2014-02-07\'}, u\'runtime\': 101, ...}, {u\'abridged_cast\': [{u\'characters\': [u\'Milo\'], u\'id\': u\'771384803\', u\'name\': u\'Kit Harington\'}, {u\'characters\': [u\'Aurelia\'], u\'id\': u\'162669130\', u\'name\': u\'Carrie-Anne Moss\'}, {u\'characters\': [u\'Cassia\'], u\'id\': u\'381421024\', u\'name\': u\'Emily Browning\'}, {u\'characters\': [u\'Atticus\'], u\'id\': u\'405589153\', u\'name\': u\'Adewale Akinnuoye-Agbaje\'}, {u\'characters\': [u\'Ariadne\'], u\'id\': u\'770689629\', u\'name\': u\'Jessica Lucas\'}], u\'alternate_ids\': {u\'imdb\': u\'1921064\'}, u\'critics_consensus\': u\'This big-budget sword-and-sandal adventure lac...g heft to amount to more than a guilty pleasure.\', u\'id\': u\'771242147\', u\'links\': {u\'alternate\': u\'http://www.rottentomatoes.com/m/pompeii_2013/\', u\'cast\': u\'http://api.rottentomatoes.com/api/public/v1.0/movies/771242147/cast.json\', u\'clips\': u\'http://api.rottentomatoes.com/api/public/v1.0/movies/771242147/clips.json\', u\'reviews\': u\'http://api.rottentomatoes.com/api/public/v1.0/movies/771242147/reviews.json\', u\'self\': u\'http://api.rottentomatoes.com/api/public/v1.0/movies/771242147.json\', u\'similar\': u\'http://api.rottentomatoes.com/api/public/v1.0/movies/771242147/similar.json\'}, u\'mpaa_rating\': u\'PG-13\', u\'posters\': {u\'detailed\': u\'http://content8.flixster.com/movie/11/17/57/11175758_det.jpg\', u\'original\': u\'http://content8.flixster.com/movie/11/17/57/11175758_ori.jpg\', u\'profile\': u\'http://content8.flixster.com/movie/11/17/57/11175758_pro.jpg\', u\'thumbnail\': u\'http://content8.flixster.com/movie/11/17/57/11175758_mob.jpg\'}, u\'ratings\': {u\'audience_rating\': u\'Spilled\', u\'audience_score\': 47, u\'critics_rating\': u\'Rotten\', u\'critics_score\': 25}, u\'release_dates\': {u\'theater\': u\'2014-02-21\'}, u\'runtime\': 98, ...}, {u\'abridged_cast\': [{u\'characters\': [u\'Jesus Christ\'], u\'id\': u\'770820624\', u\'name\': u\'Diogo Morgado\'}, {u\'characters\': [u\'Pilate\'], u\'id\': u\'770935491\', u\'name\': u\'Greg Hicks\'}, {u\'characters\': [u\'Caiaphas\'], u\'id\': u\'771039751\', u\'name\': u\'Adrian Schiller\'}, {u\'characters\': [u\'Peter\'], u\'id\': u\'771399136\', u\'name\': u\'Darwin Shaw\'}, {u\'characters\': [u\'John\'], u\'id\': u\'770852958\', u\'name\': u\'Sebastian Knapp\'}], u\'alternate_ids\': {u\'imdb\': u\'3210686\'}, u\'critics_consensus\': u\'The faithful may find their spirits raised, bu... too dull and heavy-handed to spark much fervor.\', u\'id\': u\'771366740\', u\'links\': {u\'alternate\': u\'http://www.rottentomatoes.com/m/son_of_god_2014/\', u\'cast\': u\'http://api.rottentomatoes.com/api/public/v1.0/movies/771366740/cast.json\', u\'clips\': u\'http://api.rottentomatoes.com/api/public/v1.0/movies/771366740/clips.json\', u\'reviews\': u\'http://api.rottentomatoes.com/api/public/v1.0/movies/771366740/reviews.json\', u\'self\': u\'http://api.rottentomatoes.com/api/public/v1.0/movies/771366740.json\', u\'similar\': u\'http://api.rottentomatoes.com/api/public/v1.0/movies/771366740/similar.json\'}, u\'mpaa_rating\': u\'PG-13\', u\'posters\': {u\'detailed\': u\'http://content7.flixster.com/movie/11/17/49/11174993_det.jpg\', u\'original\': u\'http://content7.flixster.com/movie/11/17/49/11174993_ori.jpg\', u\'profile\': u\'http://content7.flixster.com/movie/11/17/49/11174993_pro.jpg\', u\'thumbnail\': u\'http://content7.flixster.com/movie/11/17/49/11174993_mob.jpg\'}, u\'ratings\': {u\'audience_rating\': u\'Upright\', u\'audience_score\': 81, u\'critics_rating\': u\'Rotten\', u\'critics_score\': 25}, u\'release_dates\': {u\'theater\': u\'2014-02-28\'}, u\'runtime\': 138, ...}, {u\'abridged_cast\': [{u\'characters\': [u\'Bill Marks\'], u\'id\': u\'162652242\', u\'name\': u\'Liam Neeson\'}, {u\'characters\': [u\'Jen Summers\'], u\'id\': u\'162654248\', u\'name\': u\'Julianne Moore\'}, {u\'characters\': [u\'Zack White\'], u\'id\': u\'770693654\', u\'name\': u\'Nate Parker\'}, {u\'characters\': [u\'Tom Bowen\'], u\'id\': u\'770681905\', u\'name\': u\'Scoot McNairy\'}, {u\'characters\': [u\'Nancy\'], u\'id\': u\'770685607\', u\'name\': u\'Michelle Dockery\'}], u\'alternate_ids\': {u\'imdb\': u\'2024469\'}, u\'critics_consensus\': u\'While Liam Neeson is undoubtedly an asset, Non...t hinges on a thoroughly unbelievable final act.\', u\'id\': u\'771304322\', u\'links\': {u\'alternate\': u\'http://www.rottentomatoes.com/m/non_stop_2013/\', u\'cast\': u\'http://api.rottentomatoes.com/api/public/v1.0/movies/771304322/cast.json\', u\'clips\': u\'http://api.rottentomatoes.com/api/public/v1.0/movies/771304322/clips.json\', u\'reviews\': u\'http://api.rottentomatoes.com/api/public/v1.0/movies/771304322/reviews.json\', u\'self\': u\'http://api.rottentomatoes.com/api/public/v1.0/movies/771304322.json\', u\'similar\': u\'http://api.rottentomatoes.com/api/public/v1.0/movies/771304322/similar.json\'}, u\'mpaa_rating\': u\'PG-13\', u\'posters\': {u\'detailed\': u\'http://content9.flixster.com/movie/11/17/55/11175511_det.jpg\', u\'original\': u\'http://content9.flixster.com/movie/11/17/55/11175511_ori.jpg\', u\'profile\': u\'http://content9.flixster.com/movie/11/17/55/11175511_pro.jpg\', u\'thumbnail\': u\'http://content9.flixster.com/movie/11/17/55/11175511_mob.jpg\'}, u\'ratings\': {u\'audience_rating\': u\'Upright\', u\'audience_score\': 74, u\'critics_rating\': u\'Rotten\', u\'critics_score\': 59}, u\'release_dates\': {u\'theater\': u\'2014-02-28\'}, u\'runtime\': 110, ...}, {u\'abridged_cast\': [{u\'id\': u\'162662350\', u\'name\': u\'Kevin Costner\'}, {u\'id\': u\'771070631\', u\'name\': u\'Hailee Steinfeld\'}, {u\'id\': u\'770673718\', u\'name\': u\'Amber Heard\'}, {u\'id\': u\'162653203\', u\'name\': u\'Connie Nielsen\'}, {u\'id\': u\'771480976\', u\'name\': u\'Eriq Ebounay\'}], u\'alternate_ids\': {u\'imdb\': u\'2172934\'}, u\'critics_consensus\': u\'3 Days to Kill uneasily mixes technically acco...equences with an underdeveloped family conflict.\', u\'id\': u\'771357121\', u\'links\': {u\'alternate\': u\'http://www.rottentomatoes.com/m/3_days_to_kill/\', u\'cast\': u\'http://api.rottentomatoes.com/api/public/v1.0/movies/771357121/cast.json\', u\'clips\': u\'http://api.rottentomatoes.com/api/public/v1.0/movies/771357121/clips.json\', u\'reviews\': u\'http://api.rottentomatoes.com/api/public/v1.0/movies/771357121/reviews.json\', u\'self\': u\'http://api.rottentomatoes.com/api/public/v1.0/movies/771357121.json\', u\'similar\': u\'http://api.rottentomatoes.com/api/public/v1.0/movies/771357121/similar.json\'}, u\'mpaa_rating\': u\'PG-13\', u\'posters\': {u\'detailed\': u\'http://content7.flixster.com/movie/11/17/53/11175393_det.jpg\', u\'original\': u\'http://content7.flixster.com/movie/11/17/53/11175393_ori.jpg\', u\'profile\': u\'http://content7.flixster.com/movie/11/17/53/11175393_pro.jpg\', u\'thumbnail\': u\'http://content7.flixster.com/movie/11/17/53/11175393_mob.jpg\'}, u\'ratings\': {u\'audience_rating\': u\'Spilled\', u\'audience_score\': 54, u\'critics_rating\': u\'Rotten\', u\'critics_score\': 31}, u\'release_dates\': {u\'theater\': u\'2014-02-21\'}, u\'runtime\': 100, ...}, {u\'abridged_cast\': [{u\'characters\': [u\'Frank Stokes\'], u\'id\': u\'162654528\', u\'name\': u\'George Clooney\'}, {u\'characters\': [u\'James Granger\'], u\'id\': u\'162653499\', u\'name\': u\'Matt Damon\'}, {u\'characters\': [u\'Richard Campbell\'], u\'id\': u\'162653064\', u\'name\': u\'Bill Murray\'}, {u\'characters\': [u\'Walter Garfield\'], u\'id\': u\'162655706\', u\'name\': u\'John Goodman\'}, {u\'characters\': [u\'Jean Claude Clermont\'], u\'id\': u\'285373792\', u\'name\': u\'Jean Dujardin\'}], u\'alternate_ids\': {u\'imdb\': u\'2177771\'}, u\'critics_consensus\': u"Its intentions are noble and its cast is impre...ly nostalgic tone and curiously slack narrative.", u\'id\': u\'771323155\', u\'links\': {u\'alternate\': u\'http://www.rottentomatoes.com/m/the_monuments_men/\', u\'cast\': u\'http://api.rottentomatoes.com/api/public/v1.0/movies/771323155/cast.json\', u\'clips\': u\'http://api.rottentomatoes.com/api/public/v1.0/movies/771323155/clips.json\', u\'reviews\': u\'http://api.rottentomatoes.com/api/public/v1.0/movies/771323155/reviews.json\', u\'self\': u\'http://api.rottentomatoes.com/api/public/v1.0/movies/771323155.json\', u\'similar\': u\'http://api.rottentomatoes.com/api/public/v1.0/movies/771323155/similar.json\'}, u\'mpaa_rating\': u\'PG-13\', u\'posters\': {u\'detailed\': u\'http://content9.flixster.com/movie/11/17/43/11174399_det.jpg\', u\'original\': u\'http://content9.flixster.com/movie/11/17/43/11174399_ori.jpg\', u\'profile\': u\'http://content9.flixster.com/movie/11/17/43/11174399_pro.jpg\', u\'thumbnail\': u\'http://content9.flixster.com/movie/11/17/43/11174399_mob.jpg\'}, u\'ratings\': {u\'audience_rating\': u\'Spilled\', u\'audience_score\': 52, u\'critics_rating\': u\'Rotten\', u\'critics_score\': 34}, u\'release_dates\': {u\'theater\': u\'2014-02-07\'}, u\'runtime\': 112, ...}, {u\'abridged_cast\': [{u\'characters\': [u\'Alex Murphy / Robocop\'], u\'id\': u\'653490685\', u\'name\': u\'Joel Kinnaman\'}, {u\'characters\': [u\'Norton\'], u\'id\': u\'162652649\', u\'name\': u\'Gary Oldman\'}, {u\'characters\': [u\'Pat Novak\'], u\'id\': u\'162652156\', u\'name\': u\'Samuel L. Jackson\'}, {u\'characters\': [u\'Clara Murphy\'], u\'id\': u\'286584167\', u\'name\': u\'Abbie Cornish\'}, {u\'characters\': [u\'Raymond Sellars\'], u\'id\': u\'162652681\', u\'name\': u\'Michael Keaton\'}], u\'alternate_ids\': {u\'imdb\': u\'1234721\'}, u\'critics_consensus\': u"While it\'s far better than it could have been,...fer a significant improvement over the original.", u\'id\': u\'770803774\', u\'links\': {u\'alternate\': u\'http://www.rottentomatoes.com/m/1200731-robocop/\', u\'cast\': u\'http://api.rottentomatoes.com/api/public/v1.0/movies/770803774/cast.json\', u\'clips\': u\'http://api.rottentomatoes.com/api/public/v1.0/movies/770803774/clips.json\', u\'reviews\': u\'http://api.rottentomatoes.com/api/public/v1.0/movies/770803774/reviews.json\', u\'self\': u\'http://api.rottentomatoes.com/api/public/v1.0/movies/770803774.json\', u\'similar\': u\'http://api.rottentomatoes.com/api/public/v1.0/movies/770803774/similar.json\'}, u\'mpaa_rating\': u\'PG-13\', u\'posters\': {u\'detailed\': u\'http://content9.flixster.com/movie/11/17/46/11174639_det.jpg\', u\'original\': u\'http://content9.flixster.com/movie/11/17/46/11174639_ori.jpg\', u\'profile\': u\'http://content9.flixster.com/movie/11/17/46/11174639_pro.jpg\', u\'thumbnail\': u\'http://content9.flixster.com/movie/11/17/46/11174639_mob.jpg\'}, u\'ratings\': {u\'audience_rating\': u\'Upright\', u\'audience_score\': 62, u\'critics_rating\': u\'Rotten\', u\'critics_score\': 49}, u\'release_dates\': {u\'theater\': u\'2014-02-12\'}, u\'runtime\': 108, ...}, {u\'abridged_cast\': [{u\'characters\': [u\'James\'], u\'id\': u\'162652332\', u\'name\': u\'Ice Cube\'}, {u\'characters\': [u\'Ben\'], u\'id\': u\'770671077\', u\'name\': u\'Kevin Hart\'}, {u\'characters\': [u\'Santiago\'], u\'id\': u\'162652698\', u\'name\': u\'John Leguizamo\'}, {u\'characters\': [u\'Lt. Brooks\'], u\'id\': u\'162652571\', u\'name\': u\'Bruce McGill\'}, {u\'characters\': [u\'Angela Payton\'], u\'id\': u\'771078913\', u\'name\': u\'Tika Sumpter\'}], u\'alternate_ids\': {u\'imdb\': u\'1408253\'}, u\'critics_consensus\': u"Kevin Hart\'s livewire presence gives Ride Alon...his would-be comedy from the buddy-cop doldrums.", u\'id\': u\'771320491\', u\'links\': {u\'alternate\': u\'http://www.rottentomatoes.com/m/ride_along_2014/\', u\'cast\': u\'http://api.rottentomatoes.com/api/public/v1.0/movies/771320491/cast.json\', u\'clips\': u\'http://api.rottentomatoes.com/api/public/v1.0/movies/771320491/clips.json\', u\'reviews\': u\'http://api.rottentomatoes.com/api/public/v1.0/movies/771320491/reviews.json\', u\'self\': u\'http://api.rottentomatoes.com/api/public/v1.0/movies/771320491.json\', u\'similar\': u\'http://api.rottentomatoes.com/api/public/v1.0/movies/771320491/similar.json\'}, u\'mpaa_rating\': u\'PG-13\', u\'posters\': {u\'detailed\': u\'http://content6.flixster.com/movie/11/17/48/11174812_det.jpg\', u\'original\': u\'http://content6.flixster.com/movie/11/17/48/11174812_ori.jpg\', u\'profile\': u\'http://content6.flixster.com/movie/11/17/48/11174812_pro.jpg\', u\'thumbnail\': u\'http://content6.flixster.com/movie/11/17/48/11174812_mob.jpg\'}, u\'ratings\': {u\'audience_rating\': u\'Upright\', u\'audience_score\': 68, u\'critics_rating\': u\'Rotten\', u\'critics_score\': 17}, u\'release_dates\': {u\'dvd\': u\'2014-04-15\', u\'theater\': u\'2014-01-17\'}, u\'runtime\': 99, ...}, {u\'abridged_cast\': [{u\'characters\': [u\'Bernie\'], u\'id\': u\'770671077\', u\'name\': u\'Kevin Hart\'}, {u\'characters\': [u\'Danny\'], u\'id\': u\'162713769\', u\'name\': u\'Michael Ealy\'}, {u\'characters\': [u\'Joan\'], u\'id\': u\'162667054\', u\'name\': u\'Regina Hall\'}, {u\'characters\': [u\'Debbie\'], u\'id\': u\'162653223\', u\'name\': u\'Joy Bryant\'}, {u\'characters\': [u\'Casey McNeil\'], u\'id\': u\'162680629\', u\'name\': u\'Christopher McDonald\'}], u\'alternate_ids\': {u\'imdb\': u\'1826590\'}, u\'critics_consensus\': u\'About Last Night wanders even further from the...enplay that smartly balances romance and comedy.\', u\'id\': u\'771323761\', u\'links\': {u\'alternate\': u\'http://www.rottentomatoes.com/m/about_last_night_2014/\', u\'cast\': u\'http://api.rottentomatoes.com/api/public/v1.0/movies/771323761/cast.json\', u\'clips\': u\'http://api.rottentomatoes.com/api/public/v1.0/movies/771323761/clips.json\', u\'reviews\': u\'http://api.rottentomatoes.com/api/public/v1.0/movies/771323761/reviews.json\', u\'self\': u\'http://api.rottentomatoes.com/api/public/v1.0/movies/771323761.json\', u\'similar\': u\'http://api.rottentomatoes.com/api/public/v1.0/movies/771323761/similar.json\'}, u\'mpaa_rating\': u\'R\', u\'posters\': {u\'detailed\': u\'http://content6.flixster.com/movie/11/17/52/11175256_det.jpg\', u\'original\': u\'http://content6.flixster.com/movie/11/17/52/11175256_ori.jpg\', u\'profile\': u\'http://content6.flixster.com/movie/11/17/52/11175256_pro.jpg\', u\'thumbnail\': u\'http://content6.flixster.com/movie/11/17/52/11175256_mob.jpg\'}, u\'ratings\': {u\'audience_rating\': u\'Upright\', u\'audience_score\': 77, u\'critics_rating\': u\'Certified Fresh\', u\'critics_score\': 76}, u\'release_dates\': {u\'theater\': u\'2014-02-14\'}, u\'runtime\': 100, ...}, {u\'abridged_cast\': [{u\'characters\': [u\'David Elliot\'], u\'id\': u\'326298019\', u\'name\': u\'Alex Pettyfer\'}, {u\'characters\': [u\'Jade Butterfield\'], u\'id\': u\'771099196\', u\'name\': u\'Gabriella Wilde\'}, {u\'characters\': [u\'Harry Elliot\'], u\'id\': u\'162655397\', u\'name\': u\'Robert Patrick\'}, {u\'characters\': [u\'Hugh Butterfield\'], u\'id\': u\'162654291\', u\'name\': u\'Bruce Greenwood\'}, {u\'characters\': [u\'Keith Butterfield\'], u\'id\': u\'770706084\', u\'name\': u\'Rhys Wakefield\'}], u\'alternate_ids\': {u\'imdb\': u\'2318092\'}, u\'critics_consensus\': u\'Blander than the original Endless Love and eve...his remake is cliched and unintentionally silly.\', u\'id\': u\'771356470\', u\'links\': {u\'alternate\': u\'http://www.rottentomatoes.com/m/endless_love_2014/\', u\'cast\': u\'http://api.rottentomatoes.com/api/public/v1.0/movies/771356470/cast.json\', u\'clips\': u\'http://api.rottentomatoes.com/api/public/v1.0/movies/771356470/clips.json\', u\'reviews\': u\'http://api.rottentomatoes.com/api/public/v1.0/movies/771356470/reviews.json\', u\'self\': u\'http://api.rottentomatoes.com/api/public/v1.0/movies/771356470.json\', u\'similar\': u\'http://api.rottentomatoes.com/api/public/v1.0/movies/771356470/similar.json\'}, u\'mpaa_rating\': u\'PG-13\', u\'posters\': {u\'detailed\': u\'http://content7.flixster.com/movie/11/17/43/11174317_det.jpg\', u\'original\': u\'http://content7.flixster.com/movie/11/17/43/11174317_ori.jpg\', u\'profile\': u\'http://content7.flixster.com/movie/11/17/43/11174317_pro.jpg\', u\'thumbnail\': u\'http://content7.flixster.com/movie/11/17/43/11174317_mob.jpg\'}, u\'ratings\': {u\'audience_rating\': u\'Upright\', u\'audience_score\': 65, u\'critics_rating\': u\'Rotten\', u\'critics_score\': 16}, u\'release_dates\': {u\'theater\': u\'2014-02-14\'}, u\'runtime\': 105, ...}, {u\'abridged_cast\': [{u\'characters\': [u\'Ron Burgundy\'], u\'id\': u\'162652185\', u\'name\': u\'Will Ferrell\'}, {u\'characters\': [u\'Brian Fantana\'], u\'id\': u\'162653309\', u\'name\': u\'Paul Rudd\'}, {u\'characters\': [u\'Brick Tamland\'], u\'id\': u\'162652665\', u\'name\': u\'Steve Carell\'}, {u\'characters\': [u\'Champ Kind\'], u\'id\': u\'162654117\', u\'name\': u\'David Koechner\'}, {u\'characters\': [u\'Veronica Corningstone\'], u\'id\': u\'162663389\', u\'name\': u\'Christina Applegate\'}], u\'alternate_ids\': {u\'imdb\': u\'1229340\'}, u\'critics_consensus\': u"It\'s just as uneven and loosely structured as ...otable, it\'s nearly as funny as its predecessor.", u\'id\': u\'771303861\', u\'links\': {u\'alternate\': u\'http://www.rottentomatoes.com/m/anchorman_2_the_legend_continues/\', u\'cast\': u\'http://api.rottentomatoes.com/api/public/v1.0/movies/771303861/cast.json\', u\'clips\': u\'http://api.rottentomatoes.com/api/public/v1.0/movies/771303861/clips.json\', u\'reviews\': u\'http://api.rottentomatoes.com/api/public/v1.0/movies/771303861/reviews.json\', u\'self\': u\'http://api.rottentomatoes.com/api/public/v1.0/movies/771303861.json\', u\'similar\': u\'http://api.rottentomatoes.com/api/public/v1.0/movies/771303861/similar.json\'}, u\'mpaa_rating\': u\'PG-13\', u\'posters\': {u\'detailed\': u\'http://content9.flixster.com/movie/11/17/43/11174343_det.jpg\', u\'original\': u\'http://content9.flixster.com/movie/11/17/43/11174343_ori.jpg\', u\'profile\': u\'http://content9.flixster.com/movie/11/17/43/11174343_pro.jpg\', u\'thumbnail\': u\'http://content9.flixster.com/movie/11/17/43/11174343_mob.jpg\'}, u\'ratings\': {u\'audience_rating\': u\'Upright\', u\'audience_score\': 61, u\'critics_rating\': u\'Certified Fresh\', u\'critics_score\': 75}, u\'release_dates\': {u\'dvd\': u\'2014-04-01\', u\'theater\': u\'2013-12-18\'}, u\'runtime\': 119, ...}, {u\'abridged_cast\': [{u\'characters\': [u\'Marcus Luttrell\'], u\'id\': u\'162653181\', u\'name\': u\'Mark Wahlberg\'}, {u\'characters\': [u\'Matt Axelson\'], u\'id\': u\'162669838\', u\'name\': u\'Ben Foster\'}, {u\'characters\': [u\'Danny Dietz\'], u\'id\': u\'162652589\', u\'name\': u\'Emile Hirsch\'}, {u\'characters\': [u\'Mike Murphy\'], u\'id\': u\'326299816\', u\'name\': u\'Taylor Kitsch\'}, {u\'characters\': [u\'Erik Kristensen\'], u\'id\': u\'162662190\', u\'name\': u\'Eric Bana\'}], u\'alternate_ids\': {u\'imdb\': u\'1091191\'}, u\'critics_consensus\': u"While it may deliver its messages of patriotis...o mitigate many of his movie\'s jingoistic flaws.", u\'id\': u\'771356130\', u\'links\': {u\'alternate\': u\'http://www.rottentomatoes.com/m/lone_survivor/\', u\'cast\': u\'http://api.rottentomatoes.com/api/public/v1.0/movies/771356130/cast.json\', u\'clips\': u\'http://api.rottentomatoes.com/api/public/v1.0/movies/771356130/clips.json\', u\'reviews\': u\'http://api.rottentomatoes.com/api/public/v1.0/movies/771356130/reviews.json\', u\'self\': u\'http://api.rottentomatoes.com/api/public/v1.0/movies/771356130.json\', u\'similar\': u\'http://api.rottentomatoes.com/api/public/v1.0/movies/771356130/similar.json\'}, u\'mpaa_rating\': u\'R\', u\'posters\': {u\'detailed\': u\'http://content7.flixster.com/movie/11/17/26/11172665_det.jpg\', u\'original\': u\'http://content7.flixster.com/movie/11/17/26/11172665_ori.jpg\', u\'profile\': u\'http://content7.flixster.com/movie/11/17/26/11172665_pro.jpg\', u\'thumbnail\': u\'http://content7.flixster.com/movie/11/17/26/11172665_mob.jpg\'}, u\'ratings\': {u\'audience_rating\': u\'Upright\', u\'audience_score\': 90, u\'critics_rating\': u\'Fresh\', u\'critics_score\': 75}, u\'release_dates\': {u\'theater\': u\'2014-01-10\'}, u\'runtime\': 121, ...}, {u\'abridged_cast\': [{u\'id\': u\'770800260\', u\'name\': u\'Jennifer Lawrence\'}, {u\'id\': u\'351525448\', u\'name\': u\'Bradley Cooper\'}, {u\'id\': u\'162652645\', u\'name\': u\'Christian Bale\'}, {u\'id\': u\'162653029\', u\'name\': u\'Amy Adams\'}, {u\'id\': u\'309973652\', u\'name\': u\'Jeremy Renner\'}], u\'alternate_ids\': {u\'imdb\': u\'1800241\'}, u\'critics_consensus\': u"Riotously funny and impeccably cast, American ... Russell\'s most irrepressibly vibrant direction.", u\'id\': u\'771352406\', u\'links\': {u\'alternate\': u\'http://www.rottentomatoes.com/m/american_hustle/\', u\'cast\': u\'http://api.rottentomatoes.com/api/public/v1.0/movies/771352406/cast.json\', u\'clips\': u\'http://api.rottentomatoes.com/api/public/v1.0/movies/771352406/clips.json\', u\'reviews\': u\'http://api.rottentomatoes.com/api/public/v1.0/movies/771352406/reviews.json\', u\'self\': u\'http://api.rottentomatoes.com/api/public/v1.0/movies/771352406.json\', u\'similar\': u\'http://api.rottentomatoes.com/api/public/v1.0/movies/771352406/similar.json\'}, u\'mpaa_rating\': u\'R\', u\'posters\': {u\'detailed\': u\'http://content6.flixster.com/movie/11/17/44/11174440_det.jpg\', u\'original\': u\'http://content6.flixster.com/movie/11/17/44/11174440_ori.jpg\', u\'profile\': u\'http://content6.flixster.com/movie/11/17/44/11174440_pro.jpg\', u\'thumbnail\': u\'http://content6.flixster.com/movie/11/17/44/11174440_mob.jpg\'}, u\'ratings\': {u\'audience_rating\': u\'Upright\', u\'audience_score\': 78, u\'critics_rating\': u\'Certified Fresh\', u\'critics_score\': 93}, u\'release_dates\': {u\'dvd\': u\'2014-03-18\', u\'theater\': u\'2013-12-20\'}, u\'runtime\': 129, ...}, {u\'abridged_cast\': [{u\'characters\': [u\'Surly\'], u\'id\': u\'335717464\', u\'name\': u\'Will Arnett\'}, {u\'characters\': [u\'Grayson\'], u\'id\': u\'162662763\', u\'name\': u\'Brendan Fraser\'}, {u\'characters\': [u\'Raccoon\'], u\'id\': u\'162652242\', u\'name\': u\'Liam Neeson\'}, {u\'characters\': [u\'Andie\'], u\'id\': u\'162670134\', u\'name\': u\'Katherine Heigl\'}, {u\'characters\': [u\'King\'], u\'id\': u\'162662195\', u\'name\': u\'Stephen Lang\'}], u\'alternate_ids\': {u\'imdb\': u\'1821658\'}, u\'critics_consensus\': u\'Hampered by an unlikable central character and...ction in all but the least demanding moviegoers.\', u\'id\': u\'771354446\', u\'links\': {u\'alternate\': u\'http://www.rottentomatoes.com/m/the_nut_job/\', u\'cast\': u\'http://api.rottentomatoes.com/api/public/v1.0/movies/771354446/cast.json\', u\'clips\': u\'http://api.rottentomatoes.com/api/public/v1.0/movies/771354446/clips.json\', u\'reviews\': u\'http://api.rottentomatoes.com/api/public/v1.0/movies/771354446/reviews.json\', u\'self\': u\'http://api.rottentomatoes.com/api/public/v1.0/movies/771354446.json\', u\'similar\': u\'http://api.rottentomatoes.com/api/public/v1.0/movies/771354446/similar.json\'}, u\'mpaa_rating\': u\'PG\', u\'posters\': {u\'detailed\': u\'http://content6.flixster.com/movie/11/17/48/11174840_det.jpg\', u\'original\': u\'http://content6.flixster.com/movie/11/17/48/11174840_ori.jpg\', u\'profile\': u\'http://content6.flixster.com/movie/11/17/48/11174840_pro.jpg\', u\'thumbnail\': u\'http://content6.flixster.com/movie/11/17/48/11174840_mob.jpg\'}, u\'ratings\': {u\'audience_rating\': u\'Spilled\', u\'audience_score\': 49, u\'critics_rating\': u\'Rotten\', u\'critics_score\': 11}, u\'release_dates\': {u\'dvd\': u\'2014-04-15\', u\'theater\': u\'2014-01-17\'}, u\'runtime\': 86, ...}, {u\'abridged_cast\': [{u\'characters\': [u\'Peter Lake\'], u\'id\': u\'162665297\', u\'name\': u\'Colin Farrell\'}, {u\'characters\': [u\'Beverly Penn\'], u\'id\': u\'771100761\', u\'name\': u\'Jessica Brown-Findlay\'}, {u\'characters\': [u\'Isaac Penn\'], u\'id\': u\'162654544\', u\'name\': u\'William Hurt\'}, {u\'characters\': [u\'Pearly Soames\'], u\'id\': u\'162652569\', u\'name\': u\'Russell Crowe\'}, {u\'characters\': [u\'Virginia Gamely\'], u\'id\': u\'162652853\', u\'name\': u\'Jennifer Connelly\'}], u\'alternate_ids\': {u\'imdb\': u\'1837709\'}, u\'critics_consensus\': u"Winter\'s Tale tries to retain the grandiose sw...characters worth rooting for or a sensible plot.", u\'id\': u\'771362775\', u\'links\': {u\'alternate\': u\'http://www.rottentomatoes.com/m/winters_tale_2014/\', u\'cast\': u\'http://api.rottentomatoes.com/api/public/v1.0/movies/771362775/cast.json\', u\'clips\': u\'http://api.rottentomatoes.com/api/public/v1.0/movies/771362775/clips.json\', u\'reviews\': u\'http://api.rottentomatoes.com/api/public/v1.0/movies/771362775/reviews.json\', u\'self\': u\'http://api.rottentomatoes.com/api/public/v1.0/movies/771362775.json\', u\'similar\': u\'http://api.rottentomatoes.com/api/public/v1.0/movies/771362775/similar.json\'}, u\'mpaa_rating\': u\'PG-13\', u\'posters\': {u\'detailed\': u\'http://content9.flixster.com/movie/11/17/46/11174675_det.jpg\', u\'original\': u\'http://content9.flixster.com/movie/11/17/46/11174675_ori.jpg\', u\'profile\': u\'http://content9.flixster.com/movie/11/17/46/11174675_pro.jpg\', u\'thumbnail\': u\'http://content9.flixster.com/movie/11/17/46/11174675_mob.jpg\'}, u\'ratings\': {u\'audience_rating\': u\'Spilled\', u\'audience_score\': 48, u\'critics_rating\': u\'Rotten\', u\'critics_score\': 13}, u\'release_dates\': {u\'theater\': u\'2014-02-14\'}, u\'runtime\': 129, ...}, {u\'abridged_cast\': [{u\'characters\': [u\'Jiro Horikoshi (Japanese language version)\'], u\'id\': u\'265852453\', u\'name\': u\'Hideaki Anno\'}, {u\'characters\': [u\'Jiro Horikoshi (English language version)\'], u\'id\': u\'162666960\', u\'name\': u\'Joseph Gordon-Levitt\'}, {u\'characters\': [u\'Naoko Satomi (English language version)\'], u\'id\': u\'162685827\', u\'name\': u\'Emily Blunt\'}, {u\'characters\': [u\'Naoko Satomi (Japanese language version)\'], u\'id\': u\'770874994\', u\'name\': u\'Miori Takimoto\'}, {u\'characters\': [u\'Honjo (Japanese language version)\'], u\'id\': u\'359855311\', u\'name\': u\'Hidetoshi Nishijima\'}], u\'alternate_ids\': {u\'imdb\': u\'2013293\'}, u\'critics_consensus\': u\'The Wind Rises is a fittingly bittersweet swan song for director Hayao Miyazaki.\', u\'id\': u\'771363413\', u\'links\': {u\'alternate\': u\'http://www.rottentomatoes.com/m/the_wind_rises/\', u\'cast\': u\'http://api.rottentomatoes.com/api/public/v1.0/movies/771363413/cast.json\', u\'clips\': u\'http://api.rottentomatoes.com/api/public/v1.0/movies/771363413/clips.json\', u\'reviews\': u\'http://api.rottentomatoes.com/api/public/v1.0/movies/771363413/reviews.json\', u\'self\': u\'http://api.rottentomatoes.com/api/public/v1.0/movies/771363413.json\', u\'similar\': u\'http://api.rottentomatoes.com/api/public/v1.0/movies/771363413/similar.json\'}, u\'mpaa_rating\': u\'PG-13\', u\'posters\': {u\'detailed\': u\'http://content7.flixster.com/movie/11/17/49/11174921_det.jpg\', u\'original\': u\'http://content7.flixster.com/movie/11/17/49/11174921_ori.jpg\', u\'profile\': u\'http://content7.flixster.com/movie/11/17/49/11174921_pro.jpg\', u\'thumbnail\': u\'http://content7.flixster.com/movie/11/17/49/11174921_mob.jpg\'}, u\'ratings\': {u\'audience_rating\': u\'Upright\', u\'audience_score\': 86, u\'critics_rating\': u\'Certified Fresh\', u\'critics_score\': 88}, u\'release_dates\': {u\'theater\': u\'2014-02-21\'}, u\'runtime\': 126, ...}, (u\'The Lego Movie\', u\'neg\', 0.4881549487382537, 0.5118450512617463, 0.4027607153097428), (u\'Pompeii\', u\'neutral\', 0.4904480010932484, 0.5095519989067516, 0.5950890614040548), (u\'Son Of God\', u\'neutral\', 0.568323158146302, 0.43167684185369803, 0.8816029698242608), (u\'Non-Stop\', u\'neutral\', 0.4316059211657927, 0.5683940788342072, 0.7897784245996508), ...]'
p125
sS'movies.append'
p126
S'<built-in method append of list object>'
p127
sS'global pulse'
p128
S'<function pulse>'
p129
sS'movie'
p130
S"(u'The Lego Movie', u'neg', 0.4881549487382537, 0.5118450512617463, 0.4027607153097428)"
p131
ssg70
I16
sg71
(dp132
I11
S'        (YOUR_OWN_KEY,))'
p133
sI12
S'    binary = url.content'
p134
sI13
S'    output = json.loads(binary)'
p135
sI14
S"    movies = output['movies']"
p136
sI15
S'    for movie in movies:'
p137
sI16
S'        movies.append(pulse(movie["title"]))'
p138
sI17
S'    movies.sort()'
p139
sI18
S'    return TABLE([TR(v) for movie in movies]).xml()'
p140
sI19
S''
sI20
S'def pulse(movie):'
p141
ssg83
S'()'
p142
sg85
S'grab_movies'
p143
sasS'pyver'
p144
S'Python 2.7.4: /Users/michaelherman/Documents/RealPython/web2py/start/env/bin/python (prefix: /Users/michaelherman/Documents/RealPython/web2py/start/env/bin/..)'
p145
sS'session'
p146
g57
(S's\x1a\x11\x00\x00<div><table><tr><td style="font-weight:bold;vertical-align:top;">m</td><td style="vertical-align:top;">:</td><td><div><table><tr><td><div><table><tr><td><div>3 Days To Kill</div></td></tr><tr><td><div>neutral</div></td></tr><tr><td><div>0.30212400143435436</div></td></tr><tr><td><div>0.6978759985656456</div></td></tr><tr><td><div>0.9614148159698153</div></td></tr></table></div></td></tr><tr><td><div><table><tr><td><div>About Last Night</div></td></tr><tr><td><div>neutral</div></td></tr><tr><td><div>0.48947810793793245</div></td></tr><tr><td><div>0.5105218920620676</div></td></tr><tr><td><div>0.7770124815516386</div></td></tr></table></div></td></tr><tr><td><div><table><tr><td><div>American Hustle</div></td></tr><tr><td><div>neutral</div></td></tr><tr><td><div>0.6184005631971303</div></td></tr><tr><td><div>0.3815994368028697</div></td></tr><tr><td><div>0.6632636113183571</div></td></tr></table></div></td></tr><tr><td><div><table><tr><td><div>Anchorman 2: The Legend Continues</div></td></tr><tr><td><div>neutral</div></td></tr><tr><td><div>0.47670093556951126</div></td></tr><tr><td><div>0.5232990644304887</div></td></tr><tr><td><div>0.8005103935733485</div></td></tr></table></div></td></tr><tr><td><div><table><tr><td><div>Endless Love</div></td></tr><tr><td><div>pos</div></td></tr><tr><td><div>0.5229853853919191</div></td></tr><tr><td><div>0.4770146146080809</div></td></tr><tr><td><div>0.4623372876243215</div></td></tr></table></div></td></tr><tr><td><div><table><tr><td><div>Lone Survivor</div></td></tr><tr><td><div>neutral</div></td></tr><tr><td><div>0.5241479270122538</div></td></tr><tr><td><div>0.47585207298774623</div></td></tr><tr><td><div>0.7571421518757334</div></td></tr></table></div></td></tr><tr><td><div><table><tr><td><div>Non-Stop</div></td></tr><tr><td><div>neutral</div></td></tr><tr><td><div>0.4316059211657927</div></td></tr><tr><td><div>0.5683940788342072</div></td></tr><tr><td><div>0.7897784245996508</div></td></tr></table></div></td></tr><tr><td><div><table><tr><td><div>Pompeii</div></td></tr><tr><td><div>neutral</div></td></tr><tr><td><div>0.4904480010932484</div></td></tr><tr><td><div>0.5095519989067516</div></td></tr><tr><td><div>0.5950890614040548</div></td></tr></table></div></td></tr><tr><td><div><table><tr><td><div>Ride Along</div></td></tr><tr><td><div>neutral</div></td></tr><tr><td><div>0.6104252652002887</div></td></tr><tr><td><div>0.3895747347997113</div></td></tr><tr><td><div>0.5381050421791365</div></td></tr></table></div></td></tr><tr><td><div><table><tr><td><div>RoboCop</div></td></tr><tr><td><div>neutral</div></td></tr><tr><td><div>0.5026478605766745</div></td></tr><tr><td><div>0.49735213942332546</div></td></tr><tr><td><div>0.5950890614040548</div></td></tr></table></div></td></tr><tr><td><div><table><tr><td><div>Son Of God</div></td></tr><tr><td><div>neutral</div></td></tr><tr><td><div>0.568323158146302</div></td></tr><tr><td><div>0.43167684185369803</div></td></tr><tr><td><div>0.8816029698242608</div></td></tr></table></div></td></tr><tr><td><div><table><tr><td><div>The Lego Movie</div></td></tr><tr><td><div>neg</div></td></tr><tr><td><div>0.4881549487382537</div></td></tr><tr><td><div>0.5118450512617463</div></td></tr><tr><td><div>0.4027607153097428</div></td></tr></table></div></td></tr><tr><td><div><table><tr><td><div>The Monuments Men</div></td></tr><tr><td><div>neutral</div></td></tr><tr><td><div>0.5057370719790881</div></td></tr><tr><td><div>0.4942629280209119</div></td></tr><tr><td><div>0.6810550038249236</div></td></tr></table></div></td></tr><tr><td><div><table><tr><td><div>The Nut Job</div></td></tr><tr><td><div>neutral</div></td></tr><tr><td><div>0.5820900141924759</div></td></tr><tr><td><div>0.41790998580752414</div></td></tr><tr><td><div>0.7745208537461489</div></td></tr></table></div></td></tr><tr><td><div><table><tr><td><div>The Wind Rises</div></td></tr><tr><td><div>neutral</div></td></tr><tr><td><div>0.43051395447975327</div></td></tr><tr><td><div>0.5694860455202467</div></td></tr><tr><td><div>0.5522757489813113</div></td></tr></table></div></td></tr><tr><td><div><table><tr><td><div>Winter&#x27;s Tale</div></td></tr><tr><td><div>pos</div></td></tr><tr><td><div>0.590938073037695</div></td></tr><tr><td><div>0.40906192696230503</div></td></tr><tr><td><div>0.41716150519206013</div></td></tr></table></div></td></tr></table></div></td></tr></table></div>'
tRp147
sS'etype'
p148
S"<type 'exceptions.TypeError'>"
p149
sS'date'
p150
S'Mon Mar  3 17:35:31 2014'
p151
sS'response'
p152
g57
(S's\xdc2\x00\x00<div><table><tr><td style="font-weight:bold;vertical-align:top;">body</td><td style="vertical-align:top;">:</td><td><div>&lt;cStringIO.StringO object at 0x10379cae8&gt;</div></td></tr><tr><td style="font-weight:bold;vertical-align:top;">cookies</td><td style="vertical-align:top;">:</td><td><div><table><tr><td style="font-weight:bold;vertical-align:top;">session_id_movie_suggest</td><td style="vertical-align:top;">:</td><td><div>127.0.0.1-7bec9725-9509-44a2-8b00-0146512f97e1<table><tr><td style="font-weight:bold;vertical-align:top;">comment</td><td style="vertical-align:top;">:</td><td><div></div></td></tr><tr><td style="font-weight:bold;vertical-align:top;">domain</td><td style="vertical-align:top;">:</td><td><div></div></td></tr><tr><td style="font-weight:bold;vertical-align:top;">expires</td><td style="vertical-align:top;">:</td><td><div></div></td></tr><tr><td style="font-weight:bold;vertical-align:top;">httponly</td><td style="vertical-align:top;">:</td><td><div></div></td></tr><tr><td style="font-weight:bold;vertical-align:top;">max-age</td><td style="vertical-align:top;">:</td><td><div></div></td></tr><tr><td style="font-weight:bold;vertical-align:top;">path</td><td style="vertical-align:top;">:</td><td><div>/</div></td></tr><tr><td style="font-weight:bold;vertical-align:top;">secure</td><td style="vertical-align:top;">:</td><td><div></div></td></tr><tr><td style="font-weight:bold;vertical-align:top;">version</td><td style="vertical-align:top;">:</td><td><div></div></td></tr></table></div></td></tr></table></div></td></tr><tr><td style="font-weight:bold;vertical-align:top;">delimiters</td><td style="vertical-align:top;">:</td><td><div><table><tr><td><div>{{</div></td></tr><tr><td><div>}}</div></td></tr></table></div></td></tr><tr><td style="font-weight:bold;vertical-align:top;">files</td><td style="vertical-align:top;">:</td><td><div><table></table></div></td></tr><tr><td style="font-weight:bold;vertical-align:top;">flash</td><td style="vertical-align:top;">:</td><td><div></div></td></tr><tr><td style="font-weight:bold;vertical-align:top;">generic_patterns</td><td style="vertical-align:top;">:</td><td><div><table><tr><td><div>*</div></td></tr></table></div></td></tr><tr><td style="font-weight:bold;vertical-align:top;">google_analytics_id</td><td style="vertical-align:top;">:</td><td><div>None</div></td></tr><tr><td style="font-weight:bold;vertical-align:top;">headers</td><td style="vertical-align:top;">:</td><td><div><table><tr><td style="font-weight:bold;vertical-align:top;">X-Powered-By</td><td style="vertical-align:top;">:</td><td><div>web2py</div></td></tr></table></div></td></tr><tr><td style="font-weight:bold;vertical-align:top;">logo</td><td style="vertical-align:top;">:</td><td><div><a class="brand" data-w2p_disable_with="default" href="http://www.web2py.com/"><b>web<span>2</span>py</b>&trade;&nbsp;</a></div></td></tr><tr><td style="font-weight:bold;vertical-align:top;">menu</td><td style="vertical-align:top;">:</td><td><div><table><tr><td><div><table><tr><td><div>Home</div></td></tr><tr><td><div>False</div></td></tr><tr><td><div>/movie_suggest/default/index</div></td></tr><tr><td><div><table></table></div></td></tr></table></div></td></tr><tr><td><div><table><tr><td><div><span class="highlighted">web2py</span></div></td></tr><tr><td><div>False</div></td></tr><tr><td><div>http://web2py.com</div></td></tr><tr><td><div><table><tr><td><div><table><tr><td><div>My Sites</div></td></tr><tr><td><div>False</div></td></tr><tr><td><div>/admin/default/site</div></td></tr></table></div></td></tr><tr><td><div><table><tr><td><div>This App</div></td></tr><tr><td><div>False</div></td></tr><tr><td><div>/admin/default/design/movie_suggest</div></td></tr><tr><td><div>[(&lt;lazyT &#x27;Controller&#x27;&gt;, False, &#x27;/admin/default/edit/movie_suggest/controllers/default.py&#x27;), (&lt;lazyT &#x27;View&#x27;&gt;, False, &#x27;/admin/default/edit/movie_suggest/views/default/grab_movies.html&#x27;), (&lt;lazyT &#x27;Layout&#x27;&gt;, False, &#x27;/admin/default/edit/movie_suggest/views/layout.html&#x27;), (&lt;lazyT &#x27;Stylesheet&#x27;&gt;, False, &#x27;/admin/default/edit/movie_suggest/static/css/web2py.css&#x27;), (&lt;lazyT &#x27;DB Model&#x27;&gt;, False, &#x27;/admin/default/edit/movie_suggest/models/db.py&#x27;), (&lt;lazyT &#x27;Menu Model&#x27;&gt;, False, &#x27;/admin/default/edit/movie_suggest/models/menu.py&#x27;), (&lt;lazyT &#x27;Database&#x27;&gt;, False, &#x27;/movie_suggest/appadmin/index&#x27;), (&lt;lazyT &#x27;Errors&#x27;&gt;, False, &#x27;/admin/default/errors/movie_suggest&#x27;), (&lt;lazyT &#x27;About&#x27;&gt;, False, &#x27;/admin/default/about/movie_suggest&#x27;)]</div></td></tr></table></div></td></tr><tr><td><div><table><tr><td><div>web2py.com</div></td></tr><tr><td><div>False</div></td></tr><tr><td><div>http://www.web2py.com</div></td></tr><tr><td><div>[(&lt;lazyT &#x27;Download&#x27;&gt;, False, &#x27;http://www.web2py.com/examples/default/download&#x27;), (&lt;lazyT &#x27;Support&#x27;&gt;, False, &#x27;http://www.web2py.com/examples/default/support&#x27;), (&lt;lazyT &#x27;Demo&#x27;&gt;, False, &#x27;http://web2py.com/demo_admin&#x27;), (&lt;lazyT &#x27;Quick Examples&#x27;&gt;, False, &#x27;http://web2py.com/examples/default/examples&#x27;), (&lt;lazyT &#x27;FAQ&#x27;&gt;, False, &#x27;http://web2py.com/AlterEgo&#x27;), (&lt;lazyT &#x27;Videos&#x27;&gt;, False, &#x27;http://www.web2py.com/examples/default/videos/&#x27;), (&lt;lazyT &#x27;Free Applications&#x27;&gt;, False, &#x27;http://web2py.com/appliances&#x27;), (&lt;lazyT &#x27;Plugins&#x27;&gt;, False, &#x27;http://web2py.com/plugins&#x27;), (&lt;lazyT &#x27;Layouts&#x27;&gt;, False, &#x27;http://web2py.com/layouts&#x27;), (&lt;lazyT &#x27;Recipes&#x27;&gt;, False, &#x27;http://web2pyslices.com/&#x27;), (&lt;lazyT &#x27;Semantic&#x27;&gt;, False, &#x27;http://web2py.com/semantic&#x27;)]</div></td></tr></table></div></td></tr><tr><td><div><table><tr><td><div>Documentation</div></td></tr><tr><td><div>False</div></td></tr><tr><td><div>http://www.web2py.com/book</div></td></tr><tr><td><div>[(&lt;lazyT &#x27;Preface&#x27;&gt;, False, &#x27;http://www.web2py.com/book/default/chapter/00&#x27;), (&lt;lazyT &#x27;Introduction&#x27;&gt;, False, &#x27;http://www.web2py.com/book/default/chapter/01&#x27;), (&lt;lazyT &#x27;Python&#x27;&gt;, False, &#x27;http://www.web2py.com/book/default/chapter/02&#x27;), (&lt;lazyT &#x27;Overview&#x27;&gt;, False, &#x27;http://www.web2py.com/book/default/chapter/03&#x27;), (&lt;lazyT &#x27;The Core&#x27;&gt;, False, &#x27;http://www.web2py.com/book/default/chapter/04&#x27;), (&lt;lazyT &#x27;The Views&#x27;&gt;, False, &#x27;http://www.web2py.com/book/default/chapter/05&#x27;), (&lt;lazyT &#x27;Database&#x27;&gt;, False, &#x27;http://www.web2py.com/book/default/chapter/06&#x27;), (&lt;lazyT &#x27;Forms and Validators&#x27;&gt;, False, &#x27;http://www.web2py.com/book/default/chapter/07&#x27;), (&lt;lazyT &#x27;Email and SMS&#x27;&gt;, False, &#x27;http://www.web2py.com/book/default/chapter/08&#x27;), (&lt;lazyT &#x27;Access Control&#x27;&gt;, False, &#x27;http://www.web2py.com/book/default/chapter/09&#x27;), (&lt;lazyT &#x27;Services&#x27;&gt;, False, &#x27;http://www.web2py.com/book/default/chapter/10&#x27;), (&lt;lazyT &#x27;Ajax Recipes&#x27;&gt;, False, &#x27;http://www.web2py.com/book/default/chapter/11&#x27;), (&lt;lazyT &#x27;Components and Plugins&#x27;&gt;, False, &#x27;http://www.web2py.com/book/default/chapter/12&#x27;), (&lt;lazyT &#x27;Deployment Recipes&#x27;&gt;, False, &#x27;http://www.web2py.com/book/default/chapter/13&#x27;), (&lt;lazyT &#x27;Other Recipes&#x27;&gt;, False, &#x27;http://www.web2py.com/book/default/chapter/14&#x27;), (&lt;lazyT &#x27;Buy this book&#x27;&gt;, False, &#x27;http://stores.lulu.com/web2py&#x27;)]</div></td></tr></table></div></td></tr><tr><td><div><table><tr><td><div>Community</div></td></tr><tr><td><div>False</div></td></tr><tr><td><div>None</div></td></tr><tr><td><div>[(&lt;lazyT &#x27;Groups&#x27;&gt;, False, &#x27;http://www.web2py.com/examples/default/usergroups&#x27;), (&lt;lazyT &#x27;Twitter&#x27;&gt;, False, &#x27;http://twitter.com/web2py&#x27;), (&lt;lazyT &#x27;Live Chat&#x27;&gt;, False, &#x27;http://webchat.freenode.net/?channels=web2py&#x27;)]</div></td></tr></table></div></td></tr><tr><td><div><table><tr><td><div>Plugins</div></td></tr><tr><td><div>False</div></td></tr><tr><td><div>None</div></td></tr><tr><td><div>[(&#x27;plugin_wiki&#x27;, False, &#x27;http://web2py.com/examples/default/download&#x27;), (&lt;lazyT &#x27;Other Plugins&#x27;&gt;, False, &#x27;http://web2py.com/plugins&#x27;), (&lt;lazyT &#x27;Layout Plugins&#x27;&gt;, False, &#x27;http://web2py.com/layouts&#x27;)]</div></td></tr></table></div></td></tr></table></div></td></tr></table></div></td></tr></table></div></td></tr><tr><td style="font-weight:bold;vertical-align:top;">meta</td><td style="vertical-align:top;">:</td><td><div><table><tr><td style="font-weight:bold;vertical-align:top;">author</td><td style="vertical-align:top;">:</td><td><div>Your Name &lt;you@example.com&gt;</div></td></tr><tr><td style="font-weight:bold;vertical-align:top;">description</td><td style="vertical-align:top;">:</td><td><div>a cool new app</div></td></tr><tr><td style="font-weight:bold;vertical-align:top;">generator</td><td style="vertical-align:top;">:</td><td><div>Web2py Web Framework</div></td></tr><tr><td style="font-weight:bold;vertical-align:top;">keywords</td><td style="vertical-align:top;">:</td><td><div>web2py, python, framework</div></td></tr></table></div></td></tr><tr><td style="font-weight:bold;vertical-align:top;">models_to_run</td><td style="vertical-align:top;">:</td><td><div><table><tr><td><div>^\\w+\\.py$</div></td></tr><tr><td><div>^default/\\w+\\.py$</div></td></tr><tr><td><div>^default/grab_movies/\\w+\\.py$</div></td></tr></table></div></td></tr><tr><td style="font-weight:bold;vertical-align:top;">postprocessing</td><td style="vertical-align:top;">:</td><td><div><table></table></div></td></tr><tr><td style="font-weight:bold;vertical-align:top;">session_client</td><td style="vertical-align:top;">:</td><td><div>127.0.0.1</div></td></tr><tr><td style="font-weight:bold;vertical-align:top;">session_cookie_compression_level</td><td style="vertical-align:top;">:</td><td><div>None</div></td></tr><tr><td style="font-weight:bold;vertical-align:top;">session_cookie_expires</td><td style="vertical-align:top;">:</td><td><div>None</div></td></tr><tr><td style="font-weight:bold;vertical-align:top;">session_cookie_key</td><td style="vertical-align:top;">:</td><td><div>None</div></td></tr><tr><td style="font-weight:bold;vertical-align:top;">session_data_name</td><td style="vertical-align:top;">:</td><td><div>session_data_movie_suggest</div></td></tr><tr><td style="font-weight:bold;vertical-align:top;">session_file</td><td style="vertical-align:top;">:</td><td><div>&lt;open file &#x27;/Users/michaelherman/Documents/RealPython/web2py/start/applications/movie_suggest/sessions/127.0.0.1-7bec9725-9509-44a2-8b00-0146512f97e1&#x27;, mode &#x27;rb+&#x27; at 0x10bea7a50&gt;</div></td></tr><tr><td style="font-weight:bold;vertical-align:top;">session_filename</td><td style="vertical-align:top;">:</td><td><div>/Users/michaelherman/Documents/RealPython/web2py/start/applications/movie_suggest/sessions/127.0.0.1-7bec9725-9509-44a2-8b00-0146512f97e1</div></td></tr><tr><td style="font-weight:bold;vertical-align:top;">session_hash</td><td style="vertical-align:top;">:</td><td><div>4b64be2eb4e9512c6bf16713cd37e2dc</div></td></tr><tr><td style="font-weight:bold;vertical-align:top;">session_id</td><td style="vertical-align:top;">:</td><td><div>127.0.0.1-7bec9725-9509-44a2-8b00-0146512f97e1</div></td></tr><tr><td style="font-weight:bold;vertical-align:top;">session_id_name</td><td style="vertical-align:top;">:</td><td><div>session_id_movie_suggest</div></td></tr><tr><td style="font-weight:bold;vertical-align:top;">session_locked</td><td style="vertical-align:top;">:</td><td><div>True</div></td></tr><tr><td style="font-weight:bold;vertical-align:top;">session_masterapp</td><td style="vertical-align:top;">:</td><td><div>movie_suggest</div></td></tr><tr><td style="font-weight:bold;vertical-align:top;">session_new</td><td style="vertical-align:top;">:</td><td><div>False</div></td></tr><tr><td style="font-weight:bold;vertical-align:top;">session_storage_type</td><td style="vertical-align:top;">:</td><td><div>file</div></td></tr><tr><td style="font-weight:bold;vertical-align:top;">status</td><td style="vertical-align:top;">:</td><td><div>200</div></td></tr><tr><td style="font-weight:bold;vertical-align:top;">subtitle</td><td style="vertical-align:top;">:</td><td><div></div></td></tr><tr><td style="font-weight:bold;vertical-align:top;">title</td><td style="vertical-align:top;">:</td><td><div>Movie Suggest</div></td></tr><tr><td style="font-weight:bold;vertical-align:top;">view</td><td style="vertical-align:top;">:</td><td><div>default/grab_movies.html</div></td></tr></table></div>'
tRp153
sS'locals'
p154
(dp155
S'binary'
p156
S'\'\\n\\n\\n\\n\\n\\n\\n\\n\\n\\n\\n\\n\\n\\n\\n\\n\\n\\n\\n\\n\\n\\n\\n\\n\\n\\n\\n\\n\\n\\n\\n\\n\\n{"total":116,"m...}&page={page_number}&country={country-code}"}\\n\\n\\n\\n\''
p157
sS'url'
p158
S'<Response [200]>'
p159
sS'movie'
p160
S"(u'The Lego Movie', u'neg', 0.4881549487382537, 0.5118450512617463, 0.4027607153097428)"
p161
sS'YOUR_OWN_KEY'
p162
S"'abha3gx3p42czdrswkejmyxm'"
p163
sS'movies'
p164
S'[{u\'abridged_cast\': [{u\'characters\': [u\'Emmet\'], u\'id\': u\'770692298\', u\'name\': u\'Chris Pratt\'}, {u\'characters\': [u\'Wyldstyle/Lucy\'], u\'id\': u\'162653584\', u\'name\': u\'Elizabeth Banks\'}, {u\'characters\': [u\'Batman\'], u\'id\': u\'335717464\', u\'name\': u\'Will Arnett\'}, {u\'characters\': [u\'President Business\'], u\'id\': u\'162652185\', u\'name\': u\'Will Ferrell\'}, {u\'characters\': [u\'Vitruvius\'], u\'id\': u\'162652224\', u\'name\': u\'Morgan Freeman\'}], u\'alternate_ids\': {u\'imdb\': u\'1490017\'}, u\'critics_consensus\': u\'Boasting beautiful animation, a charming voice...ry, The Lego Movie is colorful fun for all ages.\', u\'id\': u\'771305753\', u\'links\': {u\'alternate\': u\'http://www.rottentomatoes.com/m/the_lego_movie/\', u\'cast\': u\'http://api.rottentomatoes.com/api/public/v1.0/movies/771305753/cast.json\', u\'clips\': u\'http://api.rottentomatoes.com/api/public/v1.0/movies/771305753/clips.json\', u\'reviews\': u\'http://api.rottentomatoes.com/api/public/v1.0/movies/771305753/reviews.json\', u\'self\': u\'http://api.rottentomatoes.com/api/public/v1.0/movies/771305753.json\', u\'similar\': u\'http://api.rottentomatoes.com/api/public/v1.0/movies/771305753/similar.json\'}, u\'mpaa_rating\': u\'PG\', u\'posters\': {u\'detailed\': u\'http://content9.flixster.com/movie/11/17/20/11172079_det.jpg\', u\'original\': u\'http://content9.flixster.com/movie/11/17/20/11172079_ori.jpg\', u\'profile\': u\'http://content9.flixster.com/movie/11/17/20/11172079_pro.jpg\', u\'thumbnail\': u\'http://content9.flixster.com/movie/11/17/20/11172079_mob.jpg\'}, u\'ratings\': {u\'audience_rating\': u\'Upright\', u\'audience_score\': 91, u\'critics_rating\': u\'Certified Fresh\', u\'critics_score\': 96}, u\'release_dates\': {u\'theater\': u\'2014-02-07\'}, u\'runtime\': 101, ...}, {u\'abridged_cast\': [{u\'characters\': [u\'Milo\'], u\'id\': u\'771384803\', u\'name\': u\'Kit Harington\'}, {u\'characters\': [u\'Aurelia\'], u\'id\': u\'162669130\', u\'name\': u\'Carrie-Anne Moss\'}, {u\'characters\': [u\'Cassia\'], u\'id\': u\'381421024\', u\'name\': u\'Emily Browning\'}, {u\'characters\': [u\'Atticus\'], u\'id\': u\'405589153\', u\'name\': u\'Adewale Akinnuoye-Agbaje\'}, {u\'characters\': [u\'Ariadne\'], u\'id\': u\'770689629\', u\'name\': u\'Jessica Lucas\'}], u\'alternate_ids\': {u\'imdb\': u\'1921064\'}, u\'critics_consensus\': u\'This big-budget sword-and-sandal adventure lac...g heft to amount to more than a guilty pleasure.\', u\'id\': u\'771242147\', u\'links\': {u\'alternate\': u\'http://www.rottentomatoes.com/m/pompeii_2013/\', u\'cast\': u\'http://api.rottentomatoes.com/api/public/v1.0/movies/771242147/cast.json\', u\'clips\': u\'http://api.rottentomatoes.com/api/public/v1.0/movies/771242147/clips.json\', u\'reviews\': u\'http://api.rottentomatoes.com/api/public/v1.0/movies/771242147/reviews.json\', u\'self\': u\'http://api.rottentomatoes.com/api/public/v1.0/movies/771242147.json\', u\'similar\': u\'http://api.rottentomatoes.com/api/public/v1.0/movies/771242147/similar.json\'}, u\'mpaa_rating\': u\'PG-13\', u\'posters\': {u\'detailed\': u\'http://content8.flixster.com/movie/11/17/57/11175758_det.jpg\', u\'original\': u\'http://content8.flixster.com/movie/11/17/57/11175758_ori.jpg\', u\'profile\': u\'http://content8.flixster.com/movie/11/17/57/11175758_pro.jpg\', u\'thumbnail\': u\'http://content8.flixster.com/movie/11/17/57/11175758_mob.jpg\'}, u\'ratings\': {u\'audience_rating\': u\'Spilled\', u\'audience_score\': 47, u\'critics_rating\': u\'Rotten\', u\'critics_score\': 25}, u\'release_dates\': {u\'theater\': u\'2014-02-21\'}, u\'runtime\': 98, ...}, {u\'abridged_cast\': [{u\'characters\': [u\'Jesus Christ\'], u\'id\': u\'770820624\', u\'name\': u\'Diogo Morgado\'}, {u\'characters\': [u\'Pilate\'], u\'id\': u\'770935491\', u\'name\': u\'Greg Hicks\'}, {u\'characters\': [u\'Caiaphas\'], u\'id\': u\'771039751\', u\'name\': u\'Adrian Schiller\'}, {u\'characters\': [u\'Peter\'], u\'id\': u\'771399136\', u\'name\': u\'Darwin Shaw\'}, {u\'characters\': [u\'John\'], u\'id\': u\'770852958\', u\'name\': u\'Sebastian Knapp\'}], u\'alternate_ids\': {u\'imdb\': u\'3210686\'}, u\'critics_consensus\': u\'The faithful may find their spirits raised, bu... too dull and heavy-handed to spark much fervor.\', u\'id\': u\'771366740\', u\'links\': {u\'alternate\': u\'http://www.rottentomatoes.com/m/son_of_god_2014/\', u\'cast\': u\'http://api.rottentomatoes.com/api/public/v1.0/movies/771366740/cast.json\', u\'clips\': u\'http://api.rottentomatoes.com/api/public/v1.0/movies/771366740/clips.json\', u\'reviews\': u\'http://api.rottentomatoes.com/api/public/v1.0/movies/771366740/reviews.json\', u\'self\': u\'http://api.rottentomatoes.com/api/public/v1.0/movies/771366740.json\', u\'similar\': u\'http://api.rottentomatoes.com/api/public/v1.0/movies/771366740/similar.json\'}, u\'mpaa_rating\': u\'PG-13\', u\'posters\': {u\'detailed\': u\'http://content7.flixster.com/movie/11/17/49/11174993_det.jpg\', u\'original\': u\'http://content7.flixster.com/movie/11/17/49/11174993_ori.jpg\', u\'profile\': u\'http://content7.flixster.com/movie/11/17/49/11174993_pro.jpg\', u\'thumbnail\': u\'http://content7.flixster.com/movie/11/17/49/11174993_mob.jpg\'}, u\'ratings\': {u\'audience_rating\': u\'Upright\', u\'audience_score\': 81, u\'critics_rating\': u\'Rotten\', u\'critics_score\': 25}, u\'release_dates\': {u\'theater\': u\'2014-02-28\'}, u\'runtime\': 138, ...}, {u\'abridged_cast\': [{u\'characters\': [u\'Bill Marks\'], u\'id\': u\'162652242\', u\'name\': u\'Liam Neeson\'}, {u\'characters\': [u\'Jen Summers\'], u\'id\': u\'162654248\', u\'name\': u\'Julianne Moore\'}, {u\'characters\': [u\'Zack White\'], u\'id\': u\'770693654\', u\'name\': u\'Nate Parker\'}, {u\'characters\': [u\'Tom Bowen\'], u\'id\': u\'770681905\', u\'name\': u\'Scoot McNairy\'}, {u\'characters\': [u\'Nancy\'], u\'id\': u\'770685607\', u\'name\': u\'Michelle Dockery\'}], u\'alternate_ids\': {u\'imdb\': u\'2024469\'}, u\'critics_consensus\': u\'While Liam Neeson is undoubtedly an asset, Non...t hinges on a thoroughly unbelievable final act.\', u\'id\': u\'771304322\', u\'links\': {u\'alternate\': u\'http://www.rottentomatoes.com/m/non_stop_2013/\', u\'cast\': u\'http://api.rottentomatoes.com/api/public/v1.0/movies/771304322/cast.json\', u\'clips\': u\'http://api.rottentomatoes.com/api/public/v1.0/movies/771304322/clips.json\', u\'reviews\': u\'http://api.rottentomatoes.com/api/public/v1.0/movies/771304322/reviews.json\', u\'self\': u\'http://api.rottentomatoes.com/api/public/v1.0/movies/771304322.json\', u\'similar\': u\'http://api.rottentomatoes.com/api/public/v1.0/movies/771304322/similar.json\'}, u\'mpaa_rating\': u\'PG-13\', u\'posters\': {u\'detailed\': u\'http://content9.flixster.com/movie/11/17/55/11175511_det.jpg\', u\'original\': u\'http://content9.flixster.com/movie/11/17/55/11175511_ori.jpg\', u\'profile\': u\'http://content9.flixster.com/movie/11/17/55/11175511_pro.jpg\', u\'thumbnail\': u\'http://content9.flixster.com/movie/11/17/55/11175511_mob.jpg\'}, u\'ratings\': {u\'audience_rating\': u\'Upright\', u\'audience_score\': 74, u\'critics_rating\': u\'Rotten\', u\'critics_score\': 59}, u\'release_dates\': {u\'theater\': u\'2014-02-28\'}, u\'runtime\': 110, ...}, {u\'abridged_cast\': [{u\'id\': u\'162662350\', u\'name\': u\'Kevin Costner\'}, {u\'id\': u\'771070631\', u\'name\': u\'Hailee Steinfeld\'}, {u\'id\': u\'770673718\', u\'name\': u\'Amber Heard\'}, {u\'id\': u\'162653203\', u\'name\': u\'Connie Nielsen\'}, {u\'id\': u\'771480976\', u\'name\': u\'Eriq Ebounay\'}], u\'alternate_ids\': {u\'imdb\': u\'2172934\'}, u\'critics_consensus\': u\'3 Days to Kill uneasily mixes technically acco...equences with an underdeveloped family conflict.\', u\'id\': u\'771357121\', u\'links\': {u\'alternate\': u\'http://www.rottentomatoes.com/m/3_days_to_kill/\', u\'cast\': u\'http://api.rottentomatoes.com/api/public/v1.0/movies/771357121/cast.json\', u\'clips\': u\'http://api.rottentomatoes.com/api/public/v1.0/movies/771357121/clips.json\', u\'reviews\': u\'http://api.rottentomatoes.com/api/public/v1.0/movies/771357121/reviews.json\', u\'self\': u\'http://api.rottentomatoes.com/api/public/v1.0/movies/771357121.json\', u\'similar\': u\'http://api.rottentomatoes.com/api/public/v1.0/movies/771357121/similar.json\'}, u\'mpaa_rating\': u\'PG-13\', u\'posters\': {u\'detailed\': u\'http://content7.flixster.com/movie/11/17/53/11175393_det.jpg\', u\'original\': u\'http://content7.flixster.com/movie/11/17/53/11175393_ori.jpg\', u\'profile\': u\'http://content7.flixster.com/movie/11/17/53/11175393_pro.jpg\', u\'thumbnail\': u\'http://content7.flixster.com/movie/11/17/53/11175393_mob.jpg\'}, u\'ratings\': {u\'audience_rating\': u\'Spilled\', u\'audience_score\': 54, u\'critics_rating\': u\'Rotten\', u\'critics_score\': 31}, u\'release_dates\': {u\'theater\': u\'2014-02-21\'}, u\'runtime\': 100, ...}, {u\'abridged_cast\': [{u\'characters\': [u\'Frank Stokes\'], u\'id\': u\'162654528\', u\'name\': u\'George Clooney\'}, {u\'characters\': [u\'James Granger\'], u\'id\': u\'162653499\', u\'name\': u\'Matt Damon\'}, {u\'characters\': [u\'Richard Campbell\'], u\'id\': u\'162653064\', u\'name\': u\'Bill Murray\'}, {u\'characters\': [u\'Walter Garfield\'], u\'id\': u\'162655706\', u\'name\': u\'John Goodman\'}, {u\'characters\': [u\'Jean Claude Clermont\'], u\'id\': u\'285373792\', u\'name\': u\'Jean Dujardin\'}], u\'alternate_ids\': {u\'imdb\': u\'2177771\'}, u\'critics_consensus\': u"Its intentions are noble and its cast is impre...ly nostalgic tone and curiously slack narrative.", u\'id\': u\'771323155\', u\'links\': {u\'alternate\': u\'http://www.rottentomatoes.com/m/the_monuments_men/\', u\'cast\': u\'http://api.rottentomatoes.com/api/public/v1.0/movies/771323155/cast.json\', u\'clips\': u\'http://api.rottentomatoes.com/api/public/v1.0/movies/771323155/clips.json\', u\'reviews\': u\'http://api.rottentomatoes.com/api/public/v1.0/movies/771323155/reviews.json\', u\'self\': u\'http://api.rottentomatoes.com/api/public/v1.0/movies/771323155.json\', u\'similar\': u\'http://api.rottentomatoes.com/api/public/v1.0/movies/771323155/similar.json\'}, u\'mpaa_rating\': u\'PG-13\', u\'posters\': {u\'detailed\': u\'http://content9.flixster.com/movie/11/17/43/11174399_det.jpg\', u\'original\': u\'http://content9.flixster.com/movie/11/17/43/11174399_ori.jpg\', u\'profile\': u\'http://content9.flixster.com/movie/11/17/43/11174399_pro.jpg\', u\'thumbnail\': u\'http://content9.flixster.com/movie/11/17/43/11174399_mob.jpg\'}, u\'ratings\': {u\'audience_rating\': u\'Spilled\', u\'audience_score\': 52, u\'critics_rating\': u\'Rotten\', u\'critics_score\': 34}, u\'release_dates\': {u\'theater\': u\'2014-02-07\'}, u\'runtime\': 112, ...}, {u\'abridged_cast\': [{u\'characters\': [u\'Alex Murphy / Robocop\'], u\'id\': u\'653490685\', u\'name\': u\'Joel Kinnaman\'}, {u\'characters\': [u\'Norton\'], u\'id\': u\'162652649\', u\'name\': u\'Gary Oldman\'}, {u\'characters\': [u\'Pat Novak\'], u\'id\': u\'162652156\', u\'name\': u\'Samuel L. Jackson\'}, {u\'characters\': [u\'Clara Murphy\'], u\'id\': u\'286584167\', u\'name\': u\'Abbie Cornish\'}, {u\'characters\': [u\'Raymond Sellars\'], u\'id\': u\'162652681\', u\'name\': u\'Michael Keaton\'}], u\'alternate_ids\': {u\'imdb\': u\'1234721\'}, u\'critics_consensus\': u"While it\'s far better than it could have been,...fer a significant improvement over the original.", u\'id\': u\'770803774\', u\'links\': {u\'alternate\': u\'http://www.rottentomatoes.com/m/1200731-robocop/\', u\'cast\': u\'http://api.rottentomatoes.com/api/public/v1.0/movies/770803774/cast.json\', u\'clips\': u\'http://api.rottentomatoes.com/api/public/v1.0/movies/770803774/clips.json\', u\'reviews\': u\'http://api.rottentomatoes.com/api/public/v1.0/movies/770803774/reviews.json\', u\'self\': u\'http://api.rottentomatoes.com/api/public/v1.0/movies/770803774.json\', u\'similar\': u\'http://api.rottentomatoes.com/api/public/v1.0/movies/770803774/similar.json\'}, u\'mpaa_rating\': u\'PG-13\', u\'posters\': {u\'detailed\': u\'http://content9.flixster.com/movie/11/17/46/11174639_det.jpg\', u\'original\': u\'http://content9.flixster.com/movie/11/17/46/11174639_ori.jpg\', u\'profile\': u\'http://content9.flixster.com/movie/11/17/46/11174639_pro.jpg\', u\'thumbnail\': u\'http://content9.flixster.com/movie/11/17/46/11174639_mob.jpg\'}, u\'ratings\': {u\'audience_rating\': u\'Upright\', u\'audience_score\': 62, u\'critics_rating\': u\'Rotten\', u\'critics_score\': 49}, u\'release_dates\': {u\'theater\': u\'2014-02-12\'}, u\'runtime\': 108, ...}, {u\'abridged_cast\': [{u\'characters\': [u\'James\'], u\'id\': u\'162652332\', u\'name\': u\'Ice Cube\'}, {u\'characters\': [u\'Ben\'], u\'id\': u\'770671077\', u\'name\': u\'Kevin Hart\'}, {u\'characters\': [u\'Santiago\'], u\'id\': u\'162652698\', u\'name\': u\'John Leguizamo\'}, {u\'characters\': [u\'Lt. Brooks\'], u\'id\': u\'162652571\', u\'name\': u\'Bruce McGill\'}, {u\'characters\': [u\'Angela Payton\'], u\'id\': u\'771078913\', u\'name\': u\'Tika Sumpter\'}], u\'alternate_ids\': {u\'imdb\': u\'1408253\'}, u\'critics_consensus\': u"Kevin Hart\'s livewire presence gives Ride Alon...his would-be comedy from the buddy-cop doldrums.", u\'id\': u\'771320491\', u\'links\': {u\'alternate\': u\'http://www.rottentomatoes.com/m/ride_along_2014/\', u\'cast\': u\'http://api.rottentomatoes.com/api/public/v1.0/movies/771320491/cast.json\', u\'clips\': u\'http://api.rottentomatoes.com/api/public/v1.0/movies/771320491/clips.json\', u\'reviews\': u\'http://api.rottentomatoes.com/api/public/v1.0/movies/771320491/reviews.json\', u\'self\': u\'http://api.rottentomatoes.com/api/public/v1.0/movies/771320491.json\', u\'similar\': u\'http://api.rottentomatoes.com/api/public/v1.0/movies/771320491/similar.json\'}, u\'mpaa_rating\': u\'PG-13\', u\'posters\': {u\'detailed\': u\'http://content6.flixster.com/movie/11/17/48/11174812_det.jpg\', u\'original\': u\'http://content6.flixster.com/movie/11/17/48/11174812_ori.jpg\', u\'profile\': u\'http://content6.flixster.com/movie/11/17/48/11174812_pro.jpg\', u\'thumbnail\': u\'http://content6.flixster.com/movie/11/17/48/11174812_mob.jpg\'}, u\'ratings\': {u\'audience_rating\': u\'Upright\', u\'audience_score\': 68, u\'critics_rating\': u\'Rotten\', u\'critics_score\': 17}, u\'release_dates\': {u\'dvd\': u\'2014-04-15\', u\'theater\': u\'2014-01-17\'}, u\'runtime\': 99, ...}, {u\'abridged_cast\': [{u\'characters\': [u\'Bernie\'], u\'id\': u\'770671077\', u\'name\': u\'Kevin Hart\'}, {u\'characters\': [u\'Danny\'], u\'id\': u\'162713769\', u\'name\': u\'Michael Ealy\'}, {u\'characters\': [u\'Joan\'], u\'id\': u\'162667054\', u\'name\': u\'Regina Hall\'}, {u\'characters\': [u\'Debbie\'], u\'id\': u\'162653223\', u\'name\': u\'Joy Bryant\'}, {u\'characters\': [u\'Casey McNeil\'], u\'id\': u\'162680629\', u\'name\': u\'Christopher McDonald\'}], u\'alternate_ids\': {u\'imdb\': u\'1826590\'}, u\'critics_consensus\': u\'About Last Night wanders even further from the...enplay that smartly balances romance and comedy.\', u\'id\': u\'771323761\', u\'links\': {u\'alternate\': u\'http://www.rottentomatoes.com/m/about_last_night_2014/\', u\'cast\': u\'http://api.rottentomatoes.com/api/public/v1.0/movies/771323761/cast.json\', u\'clips\': u\'http://api.rottentomatoes.com/api/public/v1.0/movies/771323761/clips.json\', u\'reviews\': u\'http://api.rottentomatoes.com/api/public/v1.0/movies/771323761/reviews.json\', u\'self\': u\'http://api.rottentomatoes.com/api/public/v1.0/movies/771323761.json\', u\'similar\': u\'http://api.rottentomatoes.com/api/public/v1.0/movies/771323761/similar.json\'}, u\'mpaa_rating\': u\'R\', u\'posters\': {u\'detailed\': u\'http://content6.flixster.com/movie/11/17/52/11175256_det.jpg\', u\'original\': u\'http://content6.flixster.com/movie/11/17/52/11175256_ori.jpg\', u\'profile\': u\'http://content6.flixster.com/movie/11/17/52/11175256_pro.jpg\', u\'thumbnail\': u\'http://content6.flixster.com/movie/11/17/52/11175256_mob.jpg\'}, u\'ratings\': {u\'audience_rating\': u\'Upright\', u\'audience_score\': 77, u\'critics_rating\': u\'Certified Fresh\', u\'critics_score\': 76}, u\'release_dates\': {u\'theater\': u\'2014-02-14\'}, u\'runtime\': 100, ...}, {u\'abridged_cast\': [{u\'characters\': [u\'David Elliot\'], u\'id\': u\'326298019\', u\'name\': u\'Alex Pettyfer\'}, {u\'characters\': [u\'Jade Butterfield\'], u\'id\': u\'771099196\', u\'name\': u\'Gabriella Wilde\'}, {u\'characters\': [u\'Harry Elliot\'], u\'id\': u\'162655397\', u\'name\': u\'Robert Patrick\'}, {u\'characters\': [u\'Hugh Butterfield\'], u\'id\': u\'162654291\', u\'name\': u\'Bruce Greenwood\'}, {u\'characters\': [u\'Keith Butterfield\'], u\'id\': u\'770706084\', u\'name\': u\'Rhys Wakefield\'}], u\'alternate_ids\': {u\'imdb\': u\'2318092\'}, u\'critics_consensus\': u\'Blander than the original Endless Love and eve...his remake is cliched and unintentionally silly.\', u\'id\': u\'771356470\', u\'links\': {u\'alternate\': u\'http://www.rottentomatoes.com/m/endless_love_2014/\', u\'cast\': u\'http://api.rottentomatoes.com/api/public/v1.0/movies/771356470/cast.json\', u\'clips\': u\'http://api.rottentomatoes.com/api/public/v1.0/movies/771356470/clips.json\', u\'reviews\': u\'http://api.rottentomatoes.com/api/public/v1.0/movies/771356470/reviews.json\', u\'self\': u\'http://api.rottentomatoes.com/api/public/v1.0/movies/771356470.json\', u\'similar\': u\'http://api.rottentomatoes.com/api/public/v1.0/movies/771356470/similar.json\'}, u\'mpaa_rating\': u\'PG-13\', u\'posters\': {u\'detailed\': u\'http://content7.flixster.com/movie/11/17/43/11174317_det.jpg\', u\'original\': u\'http://content7.flixster.com/movie/11/17/43/11174317_ori.jpg\', u\'profile\': u\'http://content7.flixster.com/movie/11/17/43/11174317_pro.jpg\', u\'thumbnail\': u\'http://content7.flixster.com/movie/11/17/43/11174317_mob.jpg\'}, u\'ratings\': {u\'audience_rating\': u\'Upright\', u\'audience_score\': 65, u\'critics_rating\': u\'Rotten\', u\'critics_score\': 16}, u\'release_dates\': {u\'theater\': u\'2014-02-14\'}, u\'runtime\': 105, ...}, {u\'abridged_cast\': [{u\'characters\': [u\'Ron Burgundy\'], u\'id\': u\'162652185\', u\'name\': u\'Will Ferrell\'}, {u\'characters\': [u\'Brian Fantana\'], u\'id\': u\'162653309\', u\'name\': u\'Paul Rudd\'}, {u\'characters\': [u\'Brick Tamland\'], u\'id\': u\'162652665\', u\'name\': u\'Steve Carell\'}, {u\'characters\': [u\'Champ Kind\'], u\'id\': u\'162654117\', u\'name\': u\'David Koechner\'}, {u\'characters\': [u\'Veronica Corningstone\'], u\'id\': u\'162663389\', u\'name\': u\'Christina Applegate\'}], u\'alternate_ids\': {u\'imdb\': u\'1229340\'}, u\'critics_consensus\': u"It\'s just as uneven and loosely structured as ...otable, it\'s nearly as funny as its predecessor.", u\'id\': u\'771303861\', u\'links\': {u\'alternate\': u\'http://www.rottentomatoes.com/m/anchorman_2_the_legend_continues/\', u\'cast\': u\'http://api.rottentomatoes.com/api/public/v1.0/movies/771303861/cast.json\', u\'clips\': u\'http://api.rottentomatoes.com/api/public/v1.0/movies/771303861/clips.json\', u\'reviews\': u\'http://api.rottentomatoes.com/api/public/v1.0/movies/771303861/reviews.json\', u\'self\': u\'http://api.rottentomatoes.com/api/public/v1.0/movies/771303861.json\', u\'similar\': u\'http://api.rottentomatoes.com/api/public/v1.0/movies/771303861/similar.json\'}, u\'mpaa_rating\': u\'PG-13\', u\'posters\': {u\'detailed\': u\'http://content9.flixster.com/movie/11/17/43/11174343_det.jpg\', u\'original\': u\'http://content9.flixster.com/movie/11/17/43/11174343_ori.jpg\', u\'profile\': u\'http://content9.flixster.com/movie/11/17/43/11174343_pro.jpg\', u\'thumbnail\': u\'http://content9.flixster.com/movie/11/17/43/11174343_mob.jpg\'}, u\'ratings\': {u\'audience_rating\': u\'Upright\', u\'audience_score\': 61, u\'critics_rating\': u\'Certified Fresh\', u\'critics_score\': 75}, u\'release_dates\': {u\'dvd\': u\'2014-04-01\', u\'theater\': u\'2013-12-18\'}, u\'runtime\': 119, ...}, {u\'abridged_cast\': [{u\'characters\': [u\'Marcus Luttrell\'], u\'id\': u\'162653181\', u\'name\': u\'Mark Wahlberg\'}, {u\'characters\': [u\'Matt Axelson\'], u\'id\': u\'162669838\', u\'name\': u\'Ben Foster\'}, {u\'characters\': [u\'Danny Dietz\'], u\'id\': u\'162652589\', u\'name\': u\'Emile Hirsch\'}, {u\'characters\': [u\'Mike Murphy\'], u\'id\': u\'326299816\', u\'name\': u\'Taylor Kitsch\'}, {u\'characters\': [u\'Erik Kristensen\'], u\'id\': u\'162662190\', u\'name\': u\'Eric Bana\'}], u\'alternate_ids\': {u\'imdb\': u\'1091191\'}, u\'critics_consensus\': u"While it may deliver its messages of patriotis...o mitigate many of his movie\'s jingoistic flaws.", u\'id\': u\'771356130\', u\'links\': {u\'alternate\': u\'http://www.rottentomatoes.com/m/lone_survivor/\', u\'cast\': u\'http://api.rottentomatoes.com/api/public/v1.0/movies/771356130/cast.json\', u\'clips\': u\'http://api.rottentomatoes.com/api/public/v1.0/movies/771356130/clips.json\', u\'reviews\': u\'http://api.rottentomatoes.com/api/public/v1.0/movies/771356130/reviews.json\', u\'self\': u\'http://api.rottentomatoes.com/api/public/v1.0/movies/771356130.json\', u\'similar\': u\'http://api.rottentomatoes.com/api/public/v1.0/movies/771356130/similar.json\'}, u\'mpaa_rating\': u\'R\', u\'posters\': {u\'detailed\': u\'http://content7.flixster.com/movie/11/17/26/11172665_det.jpg\', u\'original\': u\'http://content7.flixster.com/movie/11/17/26/11172665_ori.jpg\', u\'profile\': u\'http://content7.flixster.com/movie/11/17/26/11172665_pro.jpg\', u\'thumbnail\': u\'http://content7.flixster.com/movie/11/17/26/11172665_mob.jpg\'}, u\'ratings\': {u\'audience_rating\': u\'Upright\', u\'audience_score\': 90, u\'critics_rating\': u\'Fresh\', u\'critics_score\': 75}, u\'release_dates\': {u\'theater\': u\'2014-01-10\'}, u\'runtime\': 121, ...}, {u\'abridged_cast\': [{u\'id\': u\'770800260\', u\'name\': u\'Jennifer Lawrence\'}, {u\'id\': u\'351525448\', u\'name\': u\'Bradley Cooper\'}, {u\'id\': u\'162652645\', u\'name\': u\'Christian Bale\'}, {u\'id\': u\'162653029\', u\'name\': u\'Amy Adams\'}, {u\'id\': u\'309973652\', u\'name\': u\'Jeremy Renner\'}], u\'alternate_ids\': {u\'imdb\': u\'1800241\'}, u\'critics_consensus\': u"Riotously funny and impeccably cast, American ... Russell\'s most irrepressibly vibrant direction.", u\'id\': u\'771352406\', u\'links\': {u\'alternate\': u\'http://www.rottentomatoes.com/m/american_hustle/\', u\'cast\': u\'http://api.rottentomatoes.com/api/public/v1.0/movies/771352406/cast.json\', u\'clips\': u\'http://api.rottentomatoes.com/api/public/v1.0/movies/771352406/clips.json\', u\'reviews\': u\'http://api.rottentomatoes.com/api/public/v1.0/movies/771352406/reviews.json\', u\'self\': u\'http://api.rottentomatoes.com/api/public/v1.0/movies/771352406.json\', u\'similar\': u\'http://api.rottentomatoes.com/api/public/v1.0/movies/771352406/similar.json\'}, u\'mpaa_rating\': u\'R\', u\'posters\': {u\'detailed\': u\'http://content6.flixster.com/movie/11/17/44/11174440_det.jpg\', u\'original\': u\'http://content6.flixster.com/movie/11/17/44/11174440_ori.jpg\', u\'profile\': u\'http://content6.flixster.com/movie/11/17/44/11174440_pro.jpg\', u\'thumbnail\': u\'http://content6.flixster.com/movie/11/17/44/11174440_mob.jpg\'}, u\'ratings\': {u\'audience_rating\': u\'Upright\', u\'audience_score\': 78, u\'critics_rating\': u\'Certified Fresh\', u\'critics_score\': 93}, u\'release_dates\': {u\'dvd\': u\'2014-03-18\', u\'theater\': u\'2013-12-20\'}, u\'runtime\': 129, ...}, {u\'abridged_cast\': [{u\'characters\': [u\'Surly\'], u\'id\': u\'335717464\', u\'name\': u\'Will Arnett\'}, {u\'characters\': [u\'Grayson\'], u\'id\': u\'162662763\', u\'name\': u\'Brendan Fraser\'}, {u\'characters\': [u\'Raccoon\'], u\'id\': u\'162652242\', u\'name\': u\'Liam Neeson\'}, {u\'characters\': [u\'Andie\'], u\'id\': u\'162670134\', u\'name\': u\'Katherine Heigl\'}, {u\'characters\': [u\'King\'], u\'id\': u\'162662195\', u\'name\': u\'Stephen Lang\'}], u\'alternate_ids\': {u\'imdb\': u\'1821658\'}, u\'critics_consensus\': u\'Hampered by an unlikable central character and...ction in all but the least demanding moviegoers.\', u\'id\': u\'771354446\', u\'links\': {u\'alternate\': u\'http://www.rottentomatoes.com/m/the_nut_job/\', u\'cast\': u\'http://api.rottentomatoes.com/api/public/v1.0/movies/771354446/cast.json\', u\'clips\': u\'http://api.rottentomatoes.com/api/public/v1.0/movies/771354446/clips.json\', u\'reviews\': u\'http://api.rottentomatoes.com/api/public/v1.0/movies/771354446/reviews.json\', u\'self\': u\'http://api.rottentomatoes.com/api/public/v1.0/movies/771354446.json\', u\'similar\': u\'http://api.rottentomatoes.com/api/public/v1.0/movies/771354446/similar.json\'}, u\'mpaa_rating\': u\'PG\', u\'posters\': {u\'detailed\': u\'http://content6.flixster.com/movie/11/17/48/11174840_det.jpg\', u\'original\': u\'http://content6.flixster.com/movie/11/17/48/11174840_ori.jpg\', u\'profile\': u\'http://content6.flixster.com/movie/11/17/48/11174840_pro.jpg\', u\'thumbnail\': u\'http://content6.flixster.com/movie/11/17/48/11174840_mob.jpg\'}, u\'ratings\': {u\'audience_rating\': u\'Spilled\', u\'audience_score\': 49, u\'critics_rating\': u\'Rotten\', u\'critics_score\': 11}, u\'release_dates\': {u\'dvd\': u\'2014-04-15\', u\'theater\': u\'2014-01-17\'}, u\'runtime\': 86, ...}, {u\'abridged_cast\': [{u\'characters\': [u\'Peter Lake\'], u\'id\': u\'162665297\', u\'name\': u\'Colin Farrell\'}, {u\'characters\': [u\'Beverly Penn\'], u\'id\': u\'771100761\', u\'name\': u\'Jessica Brown-Findlay\'}, {u\'characters\': [u\'Isaac Penn\'], u\'id\': u\'162654544\', u\'name\': u\'William Hurt\'}, {u\'characters\': [u\'Pearly Soames\'], u\'id\': u\'162652569\', u\'name\': u\'Russell Crowe\'}, {u\'characters\': [u\'Virginia Gamely\'], u\'id\': u\'162652853\', u\'name\': u\'Jennifer Connelly\'}], u\'alternate_ids\': {u\'imdb\': u\'1837709\'}, u\'critics_consensus\': u"Winter\'s Tale tries to retain the grandiose sw...characters worth rooting for or a sensible plot.", u\'id\': u\'771362775\', u\'links\': {u\'alternate\': u\'http://www.rottentomatoes.com/m/winters_tale_2014/\', u\'cast\': u\'http://api.rottentomatoes.com/api/public/v1.0/movies/771362775/cast.json\', u\'clips\': u\'http://api.rottentomatoes.com/api/public/v1.0/movies/771362775/clips.json\', u\'reviews\': u\'http://api.rottentomatoes.com/api/public/v1.0/movies/771362775/reviews.json\', u\'self\': u\'http://api.rottentomatoes.com/api/public/v1.0/movies/771362775.json\', u\'similar\': u\'http://api.rottentomatoes.com/api/public/v1.0/movies/771362775/similar.json\'}, u\'mpaa_rating\': u\'PG-13\', u\'posters\': {u\'detailed\': u\'http://content9.flixster.com/movie/11/17/46/11174675_det.jpg\', u\'original\': u\'http://content9.flixster.com/movie/11/17/46/11174675_ori.jpg\', u\'profile\': u\'http://content9.flixster.com/movie/11/17/46/11174675_pro.jpg\', u\'thumbnail\': u\'http://content9.flixster.com/movie/11/17/46/11174675_mob.jpg\'}, u\'ratings\': {u\'audience_rating\': u\'Spilled\', u\'audience_score\': 48, u\'critics_rating\': u\'Rotten\', u\'critics_score\': 13}, u\'release_dates\': {u\'theater\': u\'2014-02-14\'}, u\'runtime\': 129, ...}, {u\'abridged_cast\': [{u\'characters\': [u\'Jiro Horikoshi (Japanese language version)\'], u\'id\': u\'265852453\', u\'name\': u\'Hideaki Anno\'}, {u\'characters\': [u\'Jiro Horikoshi (English language version)\'], u\'id\': u\'162666960\', u\'name\': u\'Joseph Gordon-Levitt\'}, {u\'characters\': [u\'Naoko Satomi (English language version)\'], u\'id\': u\'162685827\', u\'name\': u\'Emily Blunt\'}, {u\'characters\': [u\'Naoko Satomi (Japanese language version)\'], u\'id\': u\'770874994\', u\'name\': u\'Miori Takimoto\'}, {u\'characters\': [u\'Honjo (Japanese language version)\'], u\'id\': u\'359855311\', u\'name\': u\'Hidetoshi Nishijima\'}], u\'alternate_ids\': {u\'imdb\': u\'2013293\'}, u\'critics_consensus\': u\'The Wind Rises is a fittingly bittersweet swan song for director Hayao Miyazaki.\', u\'id\': u\'771363413\', u\'links\': {u\'alternate\': u\'http://www.rottentomatoes.com/m/the_wind_rises/\', u\'cast\': u\'http://api.rottentomatoes.com/api/public/v1.0/movies/771363413/cast.json\', u\'clips\': u\'http://api.rottentomatoes.com/api/public/v1.0/movies/771363413/clips.json\', u\'reviews\': u\'http://api.rottentomatoes.com/api/public/v1.0/movies/771363413/reviews.json\', u\'self\': u\'http://api.rottentomatoes.com/api/public/v1.0/movies/771363413.json\', u\'similar\': u\'http://api.rottentomatoes.com/api/public/v1.0/movies/771363413/similar.json\'}, u\'mpaa_rating\': u\'PG-13\', u\'posters\': {u\'detailed\': u\'http://content7.flixster.com/movie/11/17/49/11174921_det.jpg\', u\'original\': u\'http://content7.flixster.com/movie/11/17/49/11174921_ori.jpg\', u\'profile\': u\'http://content7.flixster.com/movie/11/17/49/11174921_pro.jpg\', u\'thumbnail\': u\'http://content7.flixster.com/movie/11/17/49/11174921_mob.jpg\'}, u\'ratings\': {u\'audience_rating\': u\'Upright\', u\'audience_score\': 86, u\'critics_rating\': u\'Certified Fresh\', u\'critics_score\': 88}, u\'release_dates\': {u\'theater\': u\'2014-02-21\'}, u\'runtime\': 126, ...}, (u\'The Lego Movie\', u\'neg\', 0.4881549487382537, 0.5118450512617463, 0.4027607153097428), (u\'Pompeii\', u\'neutral\', 0.4904480010932484, 0.5095519989067516, 0.5950890614040548), (u\'Son Of God\', u\'neutral\', 0.568323158146302, 0.43167684185369803, 0.8816029698242608), (u\'Non-Stop\', u\'neutral\', 0.4316059211657927, 0.5683940788342072, 0.7897784245996508), ...]'
p165
sg2
S'{u\'link_template\': u\'http://api.rottentomatoes.com/api/public/v1.0/..._page}&page={page_number}&country={country-code}\', u\'links\': {u\'alternate\': u\'http://www.rottentomatoes.com/movie/in_theaters.php\', u\'next\': u\'http://api.rottentomatoes.com/api/public/v1.0/...in_theaters.json?page_limit=16&country=us&page=2\', u\'self\': u\'http://api.rottentomatoes.com/api/public/v1.0/...in_theaters.json?page_limit=16&country=us&page=1\'}, u\'movies\': [{u\'abridged_cast\': [{u\'characters\': [u\'Emmet\'], u\'id\': u\'770692298\', u\'name\': u\'Chris Pratt\'}, {u\'characters\': [u\'Wyldstyle/Lucy\'], u\'id\': u\'162653584\', u\'name\': u\'Elizabeth Banks\'}, {u\'characters\': [u\'Batman\'], u\'id\': u\'335717464\', u\'name\': u\'Will Arnett\'}, {u\'characters\': [u\'President Business\'], u\'id\': u\'162652185\', u\'name\': u\'Will Ferrell\'}, {u\'characters\': [u\'Vitruvius\'], u\'id\': u\'162652224\', u\'name\': u\'Morgan Freeman\'}], u\'alternate_ids\': {u\'imdb\': u\'1490017\'}, u\'critics_consensus\': u\'Boasting beautiful animation, a charming voice...ry, The Lego Movie is colorful fun for all ages.\', u\'id\': u\'771305753\', u\'links\': {u\'alternate\': u\'http://www.rottentomatoes.com/m/the_lego_movie/\', u\'cast\': u\'http://api.rottentomatoes.com/api/public/v1.0/movies/771305753/cast.json\', u\'clips\': u\'http://api.rottentomatoes.com/api/public/v1.0/movies/771305753/clips.json\', u\'reviews\': u\'http://api.rottentomatoes.com/api/public/v1.0/movies/771305753/reviews.json\', u\'self\': u\'http://api.rottentomatoes.com/api/public/v1.0/movies/771305753.json\', u\'similar\': u\'http://api.rottentomatoes.com/api/public/v1.0/movies/771305753/similar.json\'}, u\'mpaa_rating\': u\'PG\', u\'posters\': {u\'detailed\': u\'http://content9.flixster.com/movie/11/17/20/11172079_det.jpg\', u\'original\': u\'http://content9.flixster.com/movie/11/17/20/11172079_ori.jpg\', u\'profile\': u\'http://content9.flixster.com/movie/11/17/20/11172079_pro.jpg\', u\'thumbnail\': u\'http://content9.flixster.com/movie/11/17/20/11172079_mob.jpg\'}, u\'ratings\': {u\'audience_rating\': u\'Upright\', u\'audience_score\': 91, u\'critics_rating\': u\'Certified Fresh\', u\'critics_score\': 96}, u\'release_dates\': {u\'theater\': u\'2014-02-07\'}, u\'runtime\': 101, ...}, {u\'abridged_cast\': [{u\'characters\': [u\'Milo\'], u\'id\': u\'771384803\', u\'name\': u\'Kit Harington\'}, {u\'characters\': [u\'Aurelia\'], u\'id\': u\'162669130\', u\'name\': u\'Carrie-Anne Moss\'}, {u\'characters\': [u\'Cassia\'], u\'id\': u\'381421024\', u\'name\': u\'Emily Browning\'}, {u\'characters\': [u\'Atticus\'], u\'id\': u\'405589153\', u\'name\': u\'Adewale Akinnuoye-Agbaje\'}, {u\'characters\': [u\'Ariadne\'], u\'id\': u\'770689629\', u\'name\': u\'Jessica Lucas\'}], u\'alternate_ids\': {u\'imdb\': u\'1921064\'}, u\'critics_consensus\': u\'This big-budget sword-and-sandal adventure lac...g heft to amount to more than a guilty pleasure.\', u\'id\': u\'771242147\', u\'links\': {u\'alternate\': u\'http://www.rottentomatoes.com/m/pompeii_2013/\', u\'cast\': u\'http://api.rottentomatoes.com/api/public/v1.0/movies/771242147/cast.json\', u\'clips\': u\'http://api.rottentomatoes.com/api/public/v1.0/movies/771242147/clips.json\', u\'reviews\': u\'http://api.rottentomatoes.com/api/public/v1.0/movies/771242147/reviews.json\', u\'self\': u\'http://api.rottentomatoes.com/api/public/v1.0/movies/771242147.json\', u\'similar\': u\'http://api.rottentomatoes.com/api/public/v1.0/movies/771242147/similar.json\'}, u\'mpaa_rating\': u\'PG-13\', u\'posters\': {u\'detailed\': u\'http://content8.flixster.com/movie/11/17/57/11175758_det.jpg\', u\'original\': u\'http://content8.flixster.com/movie/11/17/57/11175758_ori.jpg\', u\'profile\': u\'http://content8.flixster.com/movie/11/17/57/11175758_pro.jpg\', u\'thumbnail\': u\'http://content8.flixster.com/movie/11/17/57/11175758_mob.jpg\'}, u\'ratings\': {u\'audience_rating\': u\'Spilled\', u\'audience_score\': 47, u\'critics_rating\': u\'Rotten\', u\'critics_score\': 25}, u\'release_dates\': {u\'theater\': u\'2014-02-21\'}, u\'runtime\': 98, ...}, {u\'abridged_cast\': [{u\'characters\': [u\'Jesus Christ\'], u\'id\': u\'770820624\', u\'name\': u\'Diogo Morgado\'}, {u\'characters\': [u\'Pilate\'], u\'id\': u\'770935491\', u\'name\': u\'Greg Hicks\'}, {u\'characters\': [u\'Caiaphas\'], u\'id\': u\'771039751\', u\'name\': u\'Adrian Schiller\'}, {u\'characters\': [u\'Peter\'], u\'id\': u\'771399136\', u\'name\': u\'Darwin Shaw\'}, {u\'characters\': [u\'John\'], u\'id\': u\'770852958\', u\'name\': u\'Sebastian Knapp\'}], u\'alternate_ids\': {u\'imdb\': u\'3210686\'}, u\'critics_consensus\': u\'The faithful may find their spirits raised, bu... too dull and heavy-handed to spark much fervor.\', u\'id\': u\'771366740\', u\'links\': {u\'alternate\': u\'http://www.rottentomatoes.com/m/son_of_god_2014/\', u\'cast\': u\'http://api.rottentomatoes.com/api/public/v1.0/movies/771366740/cast.json\', u\'clips\': u\'http://api.rottentomatoes.com/api/public/v1.0/movies/771366740/clips.json\', u\'reviews\': u\'http://api.rottentomatoes.com/api/public/v1.0/movies/771366740/reviews.json\', u\'self\': u\'http://api.rottentomatoes.com/api/public/v1.0/movies/771366740.json\', u\'similar\': u\'http://api.rottentomatoes.com/api/public/v1.0/movies/771366740/similar.json\'}, u\'mpaa_rating\': u\'PG-13\', u\'posters\': {u\'detailed\': u\'http://content7.flixster.com/movie/11/17/49/11174993_det.jpg\', u\'original\': u\'http://content7.flixster.com/movie/11/17/49/11174993_ori.jpg\', u\'profile\': u\'http://content7.flixster.com/movie/11/17/49/11174993_pro.jpg\', u\'thumbnail\': u\'http://content7.flixster.com/movie/11/17/49/11174993_mob.jpg\'}, u\'ratings\': {u\'audience_rating\': u\'Upright\', u\'audience_score\': 81, u\'critics_rating\': u\'Rotten\', u\'critics_score\': 25}, u\'release_dates\': {u\'theater\': u\'2014-02-28\'}, u\'runtime\': 138, ...}, {u\'abridged_cast\': [{u\'characters\': [u\'Bill Marks\'], u\'id\': u\'162652242\', u\'name\': u\'Liam Neeson\'}, {u\'characters\': [u\'Jen Summers\'], u\'id\': u\'162654248\', u\'name\': u\'Julianne Moore\'}, {u\'characters\': [u\'Zack White\'], u\'id\': u\'770693654\', u\'name\': u\'Nate Parker\'}, {u\'characters\': [u\'Tom Bowen\'], u\'id\': u\'770681905\', u\'name\': u\'Scoot McNairy\'}, {u\'characters\': [u\'Nancy\'], u\'id\': u\'770685607\', u\'name\': u\'Michelle Dockery\'}], u\'alternate_ids\': {u\'imdb\': u\'2024469\'}, u\'critics_consensus\': u\'While Liam Neeson is undoubtedly an asset, Non...t hinges on a thoroughly unbelievable final act.\', u\'id\': u\'771304322\', u\'links\': {u\'alternate\': u\'http://www.rottentomatoes.com/m/non_stop_2013/\', u\'cast\': u\'http://api.rottentomatoes.com/api/public/v1.0/movies/771304322/cast.json\', u\'clips\': u\'http://api.rottentomatoes.com/api/public/v1.0/movies/771304322/clips.json\', u\'reviews\': u\'http://api.rottentomatoes.com/api/public/v1.0/movies/771304322/reviews.json\', u\'self\': u\'http://api.rottentomatoes.com/api/public/v1.0/movies/771304322.json\', u\'similar\': u\'http://api.rottentomatoes.com/api/public/v1.0/movies/771304322/similar.json\'}, u\'mpaa_rating\': u\'PG-13\', u\'posters\': {u\'detailed\': u\'http://content9.flixster.com/movie/11/17/55/11175511_det.jpg\', u\'original\': u\'http://content9.flixster.com/movie/11/17/55/11175511_ori.jpg\', u\'profile\': u\'http://content9.flixster.com/movie/11/17/55/11175511_pro.jpg\', u\'thumbnail\': u\'http://content9.flixster.com/movie/11/17/55/11175511_mob.jpg\'}, u\'ratings\': {u\'audience_rating\': u\'Upright\', u\'audience_score\': 74, u\'critics_rating\': u\'Rotten\', u\'critics_score\': 59}, u\'release_dates\': {u\'theater\': u\'2014-02-28\'}, u\'runtime\': 110, ...}, {u\'abridged_cast\': [{u\'id\': u\'162662350\', u\'name\': u\'Kevin Costner\'}, {u\'id\': u\'771070631\', u\'name\': u\'Hailee Steinfeld\'}, {u\'id\': u\'770673718\', u\'name\': u\'Amber Heard\'}, {u\'id\': u\'162653203\', u\'name\': u\'Connie Nielsen\'}, {u\'id\': u\'771480976\', u\'name\': u\'Eriq Ebounay\'}], u\'alternate_ids\': {u\'imdb\': u\'2172934\'}, u\'critics_consensus\': u\'3 Days to Kill uneasily mixes technically acco...equences with an underdeveloped family conflict.\', u\'id\': u\'771357121\', u\'links\': {u\'alternate\': u\'http://www.rottentomatoes.com/m/3_days_to_kill/\', u\'cast\': u\'http://api.rottentomatoes.com/api/public/v1.0/movies/771357121/cast.json\', u\'clips\': u\'http://api.rottentomatoes.com/api/public/v1.0/movies/771357121/clips.json\', u\'reviews\': u\'http://api.rottentomatoes.com/api/public/v1.0/movies/771357121/reviews.json\', u\'self\': u\'http://api.rottentomatoes.com/api/public/v1.0/movies/771357121.json\', u\'similar\': u\'http://api.rottentomatoes.com/api/public/v1.0/movies/771357121/similar.json\'}, u\'mpaa_rating\': u\'PG-13\', u\'posters\': {u\'detailed\': u\'http://content7.flixster.com/movie/11/17/53/11175393_det.jpg\', u\'original\': u\'http://content7.flixster.com/movie/11/17/53/11175393_ori.jpg\', u\'profile\': u\'http://content7.flixster.com/movie/11/17/53/11175393_pro.jpg\', u\'thumbnail\': u\'http://content7.flixster.com/movie/11/17/53/11175393_mob.jpg\'}, u\'ratings\': {u\'audience_rating\': u\'Spilled\', u\'audience_score\': 54, u\'critics_rating\': u\'Rotten\', u\'critics_score\': 31}, u\'release_dates\': {u\'theater\': u\'2014-02-21\'}, u\'runtime\': 100, ...}, {u\'abridged_cast\': [{u\'characters\': [u\'Frank Stokes\'], u\'id\': u\'162654528\', u\'name\': u\'George Clooney\'}, {u\'characters\': [u\'James Granger\'], u\'id\': u\'162653499\', u\'name\': u\'Matt Damon\'}, {u\'characters\': [u\'Richard Campbell\'], u\'id\': u\'162653064\', u\'name\': u\'Bill Murray\'}, {u\'characters\': [u\'Walter Garfield\'], u\'id\': u\'162655706\', u\'name\': u\'John Goodman\'}, {u\'characters\': [u\'Jean Claude Clermont\'], u\'id\': u\'285373792\', u\'name\': u\'Jean Dujardin\'}], u\'alternate_ids\': {u\'imdb\': u\'2177771\'}, u\'critics_consensus\': u"Its intentions are noble and its cast is impre...ly nostalgic tone and curiously slack narrative.", u\'id\': u\'771323155\', u\'links\': {u\'alternate\': u\'http://www.rottentomatoes.com/m/the_monuments_men/\', u\'cast\': u\'http://api.rottentomatoes.com/api/public/v1.0/movies/771323155/cast.json\', u\'clips\': u\'http://api.rottentomatoes.com/api/public/v1.0/movies/771323155/clips.json\', u\'reviews\': u\'http://api.rottentomatoes.com/api/public/v1.0/movies/771323155/reviews.json\', u\'self\': u\'http://api.rottentomatoes.com/api/public/v1.0/movies/771323155.json\', u\'similar\': u\'http://api.rottentomatoes.com/api/public/v1.0/movies/771323155/similar.json\'}, u\'mpaa_rating\': u\'PG-13\', u\'posters\': {u\'detailed\': u\'http://content9.flixster.com/movie/11/17/43/11174399_det.jpg\', u\'original\': u\'http://content9.flixster.com/movie/11/17/43/11174399_ori.jpg\', u\'profile\': u\'http://content9.flixster.com/movie/11/17/43/11174399_pro.jpg\', u\'thumbnail\': u\'http://content9.flixster.com/movie/11/17/43/11174399_mob.jpg\'}, u\'ratings\': {u\'audience_rating\': u\'Spilled\', u\'audience_score\': 52, u\'critics_rating\': u\'Rotten\', u\'critics_score\': 34}, u\'release_dates\': {u\'theater\': u\'2014-02-07\'}, u\'runtime\': 112, ...}, {u\'abridged_cast\': [{u\'characters\': [u\'Alex Murphy / Robocop\'], u\'id\': u\'653490685\', u\'name\': u\'Joel Kinnaman\'}, {u\'characters\': [u\'Norton\'], u\'id\': u\'162652649\', u\'name\': u\'Gary Oldman\'}, {u\'characters\': [u\'Pat Novak\'], u\'id\': u\'162652156\', u\'name\': u\'Samuel L. Jackson\'}, {u\'characters\': [u\'Clara Murphy\'], u\'id\': u\'286584167\', u\'name\': u\'Abbie Cornish\'}, {u\'characters\': [u\'Raymond Sellars\'], u\'id\': u\'162652681\', u\'name\': u\'Michael Keaton\'}], u\'alternate_ids\': {u\'imdb\': u\'1234721\'}, u\'critics_consensus\': u"While it\'s far better than it could have been,...fer a significant improvement over the original.", u\'id\': u\'770803774\', u\'links\': {u\'alternate\': u\'http://www.rottentomatoes.com/m/1200731-robocop/\', u\'cast\': u\'http://api.rottentomatoes.com/api/public/v1.0/movies/770803774/cast.json\', u\'clips\': u\'http://api.rottentomatoes.com/api/public/v1.0/movies/770803774/clips.json\', u\'reviews\': u\'http://api.rottentomatoes.com/api/public/v1.0/movies/770803774/reviews.json\', u\'self\': u\'http://api.rottentomatoes.com/api/public/v1.0/movies/770803774.json\', u\'similar\': u\'http://api.rottentomatoes.com/api/public/v1.0/movies/770803774/similar.json\'}, u\'mpaa_rating\': u\'PG-13\', u\'posters\': {u\'detailed\': u\'http://content9.flixster.com/movie/11/17/46/11174639_det.jpg\', u\'original\': u\'http://content9.flixster.com/movie/11/17/46/11174639_ori.jpg\', u\'profile\': u\'http://content9.flixster.com/movie/11/17/46/11174639_pro.jpg\', u\'thumbnail\': u\'http://content9.flixster.com/movie/11/17/46/11174639_mob.jpg\'}, u\'ratings\': {u\'audience_rating\': u\'Upright\', u\'audience_score\': 62, u\'critics_rating\': u\'Rotten\', u\'critics_score\': 49}, u\'release_dates\': {u\'theater\': u\'2014-02-12\'}, u\'runtime\': 108, ...}, {u\'abridged_cast\': [{u\'characters\': [u\'James\'], u\'id\': u\'162652332\', u\'name\': u\'Ice Cube\'}, {u\'characters\': [u\'Ben\'], u\'id\': u\'770671077\', u\'name\': u\'Kevin Hart\'}, {u\'characters\': [u\'Santiago\'], u\'id\': u\'162652698\', u\'name\': u\'John Leguizamo\'}, {u\'characters\': [u\'Lt. Brooks\'], u\'id\': u\'162652571\', u\'name\': u\'Bruce McGill\'}, {u\'characters\': [u\'Angela Payton\'], u\'id\': u\'771078913\', u\'name\': u\'Tika Sumpter\'}], u\'alternate_ids\': {u\'imdb\': u\'1408253\'}, u\'critics_consensus\': u"Kevin Hart\'s livewire presence gives Ride Alon...his would-be comedy from the buddy-cop doldrums.", u\'id\': u\'771320491\', u\'links\': {u\'alternate\': u\'http://www.rottentomatoes.com/m/ride_along_2014/\', u\'cast\': u\'http://api.rottentomatoes.com/api/public/v1.0/movies/771320491/cast.json\', u\'clips\': u\'http://api.rottentomatoes.com/api/public/v1.0/movies/771320491/clips.json\', u\'reviews\': u\'http://api.rottentomatoes.com/api/public/v1.0/movies/771320491/reviews.json\', u\'self\': u\'http://api.rottentomatoes.com/api/public/v1.0/movies/771320491.json\', u\'similar\': u\'http://api.rottentomatoes.com/api/public/v1.0/movies/771320491/similar.json\'}, u\'mpaa_rating\': u\'PG-13\', u\'posters\': {u\'detailed\': u\'http://content6.flixster.com/movie/11/17/48/11174812_det.jpg\', u\'original\': u\'http://content6.flixster.com/movie/11/17/48/11174812_ori.jpg\', u\'profile\': u\'http://content6.flixster.com/movie/11/17/48/11174812_pro.jpg\', u\'thumbnail\': u\'http://content6.flixster.com/movie/11/17/48/11174812_mob.jpg\'}, u\'ratings\': {u\'audience_rating\': u\'Upright\', u\'audience_score\': 68, u\'critics_rating\': u\'Rotten\', u\'critics_score\': 17}, u\'release_dates\': {u\'dvd\': u\'2014-04-15\', u\'theater\': u\'2014-01-17\'}, u\'runtime\': 99, ...}, {u\'abridged_cast\': [{u\'characters\': [u\'Bernie\'], u\'id\': u\'770671077\', u\'name\': u\'Kevin Hart\'}, {u\'characters\': [u\'Danny\'], u\'id\': u\'162713769\', u\'name\': u\'Michael Ealy\'}, {u\'characters\': [u\'Joan\'], u\'id\': u\'162667054\', u\'name\': u\'Regina Hall\'}, {u\'characters\': [u\'Debbie\'], u\'id\': u\'162653223\', u\'name\': u\'Joy Bryant\'}, {u\'characters\': [u\'Casey McNeil\'], u\'id\': u\'162680629\', u\'name\': u\'Christopher McDonald\'}], u\'alternate_ids\': {u\'imdb\': u\'1826590\'}, u\'critics_consensus\': u\'About Last Night wanders even further from the...enplay that smartly balances romance and comedy.\', u\'id\': u\'771323761\', u\'links\': {u\'alternate\': u\'http://www.rottentomatoes.com/m/about_last_night_2014/\', u\'cast\': u\'http://api.rottentomatoes.com/api/public/v1.0/movies/771323761/cast.json\', u\'clips\': u\'http://api.rottentomatoes.com/api/public/v1.0/movies/771323761/clips.json\', u\'reviews\': u\'http://api.rottentomatoes.com/api/public/v1.0/movies/771323761/reviews.json\', u\'self\': u\'http://api.rottentomatoes.com/api/public/v1.0/movies/771323761.json\', u\'similar\': u\'http://api.rottentomatoes.com/api/public/v1.0/movies/771323761/similar.json\'}, u\'mpaa_rating\': u\'R\', u\'posters\': {u\'detailed\': u\'http://content6.flixster.com/movie/11/17/52/11175256_det.jpg\', u\'original\': u\'http://content6.flixster.com/movie/11/17/52/11175256_ori.jpg\', u\'profile\': u\'http://content6.flixster.com/movie/11/17/52/11175256_pro.jpg\', u\'thumbnail\': u\'http://content6.flixster.com/movie/11/17/52/11175256_mob.jpg\'}, u\'ratings\': {u\'audience_rating\': u\'Upright\', u\'audience_score\': 77, u\'critics_rating\': u\'Certified Fresh\', u\'critics_score\': 76}, u\'release_dates\': {u\'theater\': u\'2014-02-14\'}, u\'runtime\': 100, ...}, {u\'abridged_cast\': [{u\'characters\': [u\'David Elliot\'], u\'id\': u\'326298019\', u\'name\': u\'Alex Pettyfer\'}, {u\'characters\': [u\'Jade Butterfield\'], u\'id\': u\'771099196\', u\'name\': u\'Gabriella Wilde\'}, {u\'characters\': [u\'Harry Elliot\'], u\'id\': u\'162655397\', u\'name\': u\'Robert Patrick\'}, {u\'characters\': [u\'Hugh Butterfield\'], u\'id\': u\'162654291\', u\'name\': u\'Bruce Greenwood\'}, {u\'characters\': [u\'Keith Butterfield\'], u\'id\': u\'770706084\', u\'name\': u\'Rhys Wakefield\'}], u\'alternate_ids\': {u\'imdb\': u\'2318092\'}, u\'critics_consensus\': u\'Blander than the original Endless Love and eve...his remake is cliched and unintentionally silly.\', u\'id\': u\'771356470\', u\'links\': {u\'alternate\': u\'http://www.rottentomatoes.com/m/endless_love_2014/\', u\'cast\': u\'http://api.rottentomatoes.com/api/public/v1.0/movies/771356470/cast.json\', u\'clips\': u\'http://api.rottentomatoes.com/api/public/v1.0/movies/771356470/clips.json\', u\'reviews\': u\'http://api.rottentomatoes.com/api/public/v1.0/movies/771356470/reviews.json\', u\'self\': u\'http://api.rottentomatoes.com/api/public/v1.0/movies/771356470.json\', u\'similar\': u\'http://api.rottentomatoes.com/api/public/v1.0/movies/771356470/similar.json\'}, u\'mpaa_rating\': u\'PG-13\', u\'posters\': {u\'detailed\': u\'http://content7.flixster.com/movie/11/17/43/11174317_det.jpg\', u\'original\': u\'http://content7.flixster.com/movie/11/17/43/11174317_ori.jpg\', u\'profile\': u\'http://content7.flixster.com/movie/11/17/43/11174317_pro.jpg\', u\'thumbnail\': u\'http://content7.flixster.com/movie/11/17/43/11174317_mob.jpg\'}, u\'ratings\': {u\'audience_rating\': u\'Upright\', u\'audience_score\': 65, u\'critics_rating\': u\'Rotten\', u\'critics_score\': 16}, u\'release_dates\': {u\'theater\': u\'2014-02-14\'}, u\'runtime\': 105, ...}, {u\'abridged_cast\': [{u\'characters\': [u\'Ron Burgundy\'], u\'id\': u\'162652185\', u\'name\': u\'Will Ferrell\'}, {u\'characters\': [u\'Brian Fantana\'], u\'id\': u\'162653309\', u\'name\': u\'Paul Rudd\'}, {u\'characters\': [u\'Brick Tamland\'], u\'id\': u\'162652665\', u\'name\': u\'Steve Carell\'}, {u\'characters\': [u\'Champ Kind\'], u\'id\': u\'162654117\', u\'name\': u\'David Koechner\'}, {u\'characters\': [u\'Veronica Corningstone\'], u\'id\': u\'162663389\', u\'name\': u\'Christina Applegate\'}], u\'alternate_ids\': {u\'imdb\': u\'1229340\'}, u\'critics_consensus\': u"It\'s just as uneven and loosely structured as ...otable, it\'s nearly as funny as its predecessor.", u\'id\': u\'771303861\', u\'links\': {u\'alternate\': u\'http://www.rottentomatoes.com/m/anchorman_2_the_legend_continues/\', u\'cast\': u\'http://api.rottentomatoes.com/api/public/v1.0/movies/771303861/cast.json\', u\'clips\': u\'http://api.rottentomatoes.com/api/public/v1.0/movies/771303861/clips.json\', u\'reviews\': u\'http://api.rottentomatoes.com/api/public/v1.0/movies/771303861/reviews.json\', u\'self\': u\'http://api.rottentomatoes.com/api/public/v1.0/movies/771303861.json\', u\'similar\': u\'http://api.rottentomatoes.com/api/public/v1.0/movies/771303861/similar.json\'}, u\'mpaa_rating\': u\'PG-13\', u\'posters\': {u\'detailed\': u\'http://content9.flixster.com/movie/11/17/43/11174343_det.jpg\', u\'original\': u\'http://content9.flixster.com/movie/11/17/43/11174343_ori.jpg\', u\'profile\': u\'http://content9.flixster.com/movie/11/17/43/11174343_pro.jpg\', u\'thumbnail\': u\'http://content9.flixster.com/movie/11/17/43/11174343_mob.jpg\'}, u\'ratings\': {u\'audience_rating\': u\'Upright\', u\'audience_score\': 61, u\'critics_rating\': u\'Certified Fresh\', u\'critics_score\': 75}, u\'release_dates\': {u\'dvd\': u\'2014-04-01\', u\'theater\': u\'2013-12-18\'}, u\'runtime\': 119, ...}, {u\'abridged_cast\': [{u\'characters\': [u\'Marcus Luttrell\'], u\'id\': u\'162653181\', u\'name\': u\'Mark Wahlberg\'}, {u\'characters\': [u\'Matt Axelson\'], u\'id\': u\'162669838\', u\'name\': u\'Ben Foster\'}, {u\'characters\': [u\'Danny Dietz\'], u\'id\': u\'162652589\', u\'name\': u\'Emile Hirsch\'}, {u\'characters\': [u\'Mike Murphy\'], u\'id\': u\'326299816\', u\'name\': u\'Taylor Kitsch\'}, {u\'characters\': [u\'Erik Kristensen\'], u\'id\': u\'162662190\', u\'name\': u\'Eric Bana\'}], u\'alternate_ids\': {u\'imdb\': u\'1091191\'}, u\'critics_consensus\': u"While it may deliver its messages of patriotis...o mitigate many of his movie\'s jingoistic flaws.", u\'id\': u\'771356130\', u\'links\': {u\'alternate\': u\'http://www.rottentomatoes.com/m/lone_survivor/\', u\'cast\': u\'http://api.rottentomatoes.com/api/public/v1.0/movies/771356130/cast.json\', u\'clips\': u\'http://api.rottentomatoes.com/api/public/v1.0/movies/771356130/clips.json\', u\'reviews\': u\'http://api.rottentomatoes.com/api/public/v1.0/movies/771356130/reviews.json\', u\'self\': u\'http://api.rottentomatoes.com/api/public/v1.0/movies/771356130.json\', u\'similar\': u\'http://api.rottentomatoes.com/api/public/v1.0/movies/771356130/similar.json\'}, u\'mpaa_rating\': u\'R\', u\'posters\': {u\'detailed\': u\'http://content7.flixster.com/movie/11/17/26/11172665_det.jpg\', u\'original\': u\'http://content7.flixster.com/movie/11/17/26/11172665_ori.jpg\', u\'profile\': u\'http://content7.flixster.com/movie/11/17/26/11172665_pro.jpg\', u\'thumbnail\': u\'http://content7.flixster.com/movie/11/17/26/11172665_mob.jpg\'}, u\'ratings\': {u\'audience_rating\': u\'Upright\', u\'audience_score\': 90, u\'critics_rating\': u\'Fresh\', u\'critics_score\': 75}, u\'release_dates\': {u\'theater\': u\'2014-01-10\'}, u\'runtime\': 121, ...}, {u\'abridged_cast\': [{u\'id\': u\'770800260\', u\'name\': u\'Jennifer Lawrence\'}, {u\'id\': u\'351525448\', u\'name\': u\'Bradley Cooper\'}, {u\'id\': u\'162652645\', u\'name\': u\'Christian Bale\'}, {u\'id\': u\'162653029\', u\'name\': u\'Amy Adams\'}, {u\'id\': u\'309973652\', u\'name\': u\'Jeremy Renner\'}], u\'alternate_ids\': {u\'imdb\': u\'1800241\'}, u\'critics_consensus\': u"Riotously funny and impeccably cast, American ... Russell\'s most irrepressibly vibrant direction.", u\'id\': u\'771352406\', u\'links\': {u\'alternate\': u\'http://www.rottentomatoes.com/m/american_hustle/\', u\'cast\': u\'http://api.rottentomatoes.com/api/public/v1.0/movies/771352406/cast.json\', u\'clips\': u\'http://api.rottentomatoes.com/api/public/v1.0/movies/771352406/clips.json\', u\'reviews\': u\'http://api.rottentomatoes.com/api/public/v1.0/movies/771352406/reviews.json\', u\'self\': u\'http://api.rottentomatoes.com/api/public/v1.0/movies/771352406.json\', u\'similar\': u\'http://api.rottentomatoes.com/api/public/v1.0/movies/771352406/similar.json\'}, u\'mpaa_rating\': u\'R\', u\'posters\': {u\'detailed\': u\'http://content6.flixster.com/movie/11/17/44/11174440_det.jpg\', u\'original\': u\'http://content6.flixster.com/movie/11/17/44/11174440_ori.jpg\', u\'profile\': u\'http://content6.flixster.com/movie/11/17/44/11174440_pro.jpg\', u\'thumbnail\': u\'http://content6.flixster.com/movie/11/17/44/11174440_mob.jpg\'}, u\'ratings\': {u\'audience_rating\': u\'Upright\', u\'audience_score\': 78, u\'critics_rating\': u\'Certified Fresh\', u\'critics_score\': 93}, u\'release_dates\': {u\'dvd\': u\'2014-03-18\', u\'theater\': u\'2013-12-20\'}, u\'runtime\': 129, ...}, {u\'abridged_cast\': [{u\'characters\': [u\'Surly\'], u\'id\': u\'335717464\', u\'name\': u\'Will Arnett\'}, {u\'characters\': [u\'Grayson\'], u\'id\': u\'162662763\', u\'name\': u\'Brendan Fraser\'}, {u\'characters\': [u\'Raccoon\'], u\'id\': u\'162652242\', u\'name\': u\'Liam Neeson\'}, {u\'characters\': [u\'Andie\'], u\'id\': u\'162670134\', u\'name\': u\'Katherine Heigl\'}, {u\'characters\': [u\'King\'], u\'id\': u\'162662195\', u\'name\': u\'Stephen Lang\'}], u\'alternate_ids\': {u\'imdb\': u\'1821658\'}, u\'critics_consensus\': u\'Hampered by an unlikable central character and...ction in all but the least demanding moviegoers.\', u\'id\': u\'771354446\', u\'links\': {u\'alternate\': u\'http://www.rottentomatoes.com/m/the_nut_job/\', u\'cast\': u\'http://api.rottentomatoes.com/api/public/v1.0/movies/771354446/cast.json\', u\'clips\': u\'http://api.rottentomatoes.com/api/public/v1.0/movies/771354446/clips.json\', u\'reviews\': u\'http://api.rottentomatoes.com/api/public/v1.0/movies/771354446/reviews.json\', u\'self\': u\'http://api.rottentomatoes.com/api/public/v1.0/movies/771354446.json\', u\'similar\': u\'http://api.rottentomatoes.com/api/public/v1.0/movies/771354446/similar.json\'}, u\'mpaa_rating\': u\'PG\', u\'posters\': {u\'detailed\': u\'http://content6.flixster.com/movie/11/17/48/11174840_det.jpg\', u\'original\': u\'http://content6.flixster.com/movie/11/17/48/11174840_ori.jpg\', u\'profile\': u\'http://content6.flixster.com/movie/11/17/48/11174840_pro.jpg\', u\'thumbnail\': u\'http://content6.flixster.com/movie/11/17/48/11174840_mob.jpg\'}, u\'ratings\': {u\'audience_rating\': u\'Spilled\', u\'audience_score\': 49, u\'critics_rating\': u\'Rotten\', u\'critics_score\': 11}, u\'release_dates\': {u\'dvd\': u\'2014-04-15\', u\'theater\': u\'2014-01-17\'}, u\'runtime\': 86, ...}, {u\'abridged_cast\': [{u\'characters\': [u\'Peter Lake\'], u\'id\': u\'162665297\', u\'name\': u\'Colin Farrell\'}, {u\'characters\': [u\'Beverly Penn\'], u\'id\': u\'771100761\', u\'name\': u\'Jessica Brown-Findlay\'}, {u\'characters\': [u\'Isaac Penn\'], u\'id\': u\'162654544\', u\'name\': u\'William Hurt\'}, {u\'characters\': [u\'Pearly Soames\'], u\'id\': u\'162652569\', u\'name\': u\'Russell Crowe\'}, {u\'characters\': [u\'Virginia Gamely\'], u\'id\': u\'162652853\', u\'name\': u\'Jennifer Connelly\'}], u\'alternate_ids\': {u\'imdb\': u\'1837709\'}, u\'critics_consensus\': u"Winter\'s Tale tries to retain the grandiose sw...characters worth rooting for or a sensible plot.", u\'id\': u\'771362775\', u\'links\': {u\'alternate\': u\'http://www.rottentomatoes.com/m/winters_tale_2014/\', u\'cast\': u\'http://api.rottentomatoes.com/api/public/v1.0/movies/771362775/cast.json\', u\'clips\': u\'http://api.rottentomatoes.com/api/public/v1.0/movies/771362775/clips.json\', u\'reviews\': u\'http://api.rottentomatoes.com/api/public/v1.0/movies/771362775/reviews.json\', u\'self\': u\'http://api.rottentomatoes.com/api/public/v1.0/movies/771362775.json\', u\'similar\': u\'http://api.rottentomatoes.com/api/public/v1.0/movies/771362775/similar.json\'}, u\'mpaa_rating\': u\'PG-13\', u\'posters\': {u\'detailed\': u\'http://content9.flixster.com/movie/11/17/46/11174675_det.jpg\', u\'original\': u\'http://content9.flixster.com/movie/11/17/46/11174675_ori.jpg\', u\'profile\': u\'http://content9.flixster.com/movie/11/17/46/11174675_pro.jpg\', u\'thumbnail\': u\'http://content9.flixster.com/movie/11/17/46/11174675_mob.jpg\'}, u\'ratings\': {u\'audience_rating\': u\'Spilled\', u\'audience_score\': 48, u\'critics_rating\': u\'Rotten\', u\'critics_score\': 13}, u\'release_dates\': {u\'theater\': u\'2014-02-14\'}, u\'runtime\': 129, ...}, {u\'abridged_cast\': [{u\'characters\': [u\'Jiro Horikoshi (Japanese language version)\'], u\'id\': u\'265852453\', u\'name\': u\'Hideaki Anno\'}, {u\'characters\': [u\'Jiro Horikoshi (English language version)\'], u\'id\': u\'162666960\', u\'name\': u\'Joseph Gordon-Levitt\'}, {u\'characters\': [u\'Naoko Satomi (English language version)\'], u\'id\': u\'162685827\', u\'name\': u\'Emily Blunt\'}, {u\'characters\': [u\'Naoko Satomi (Japanese language version)\'], u\'id\': u\'770874994\', u\'name\': u\'Miori Takimoto\'}, {u\'characters\': [u\'Honjo (Japanese language version)\'], u\'id\': u\'359855311\', u\'name\': u\'Hidetoshi Nishijima\'}], u\'alternate_ids\': {u\'imdb\': u\'2013293\'}, u\'critics_consensus\': u\'The Wind Rises is a fittingly bittersweet swan song for director Hayao Miyazaki.\', u\'id\': u\'771363413\', u\'links\': {u\'alternate\': u\'http://www.rottentomatoes.com/m/the_wind_rises/\', u\'cast\': u\'http://api.rottentomatoes.com/api/public/v1.0/movies/771363413/cast.json\', u\'clips\': u\'http://api.rottentomatoes.com/api/public/v1.0/movies/771363413/clips.json\', u\'reviews\': u\'http://api.rottentomatoes.com/api/public/v1.0/movies/771363413/reviews.json\', u\'self\': u\'http://api.rottentomatoes.com/api/public/v1.0/movies/771363413.json\', u\'similar\': u\'http://api.rottentomatoes.com/api/public/v1.0/movies/771363413/similar.json\'}, u\'mpaa_rating\': u\'PG-13\', u\'posters\': {u\'detailed\': u\'http://content7.flixster.com/movie/11/17/49/11174921_det.jpg\', u\'original\': u\'http://content7.flixster.com/movie/11/17/49/11174921_ori.jpg\', u\'profile\': u\'http://content7.flixster.com/movie/11/17/49/11174921_pro.jpg\', u\'thumbnail\': u\'http://content7.flixster.com/movie/11/17/49/11174921_mob.jpg\'}, u\'ratings\': {u\'audience_rating\': u\'Upright\', u\'audience_score\': 86, u\'critics_rating\': u\'Certified Fresh\', u\'critics_score\': 88}, u\'release_dates\': {u\'theater\': u\'2014-02-21\'}, u\'runtime\': 126, ...}, (u\'The Lego Movie\', u\'neg\', 0.4881549487382537, 0.5118450512617463, 0.4027607153097428), (u\'Pompeii\', u\'neutral\', 0.4904480010932484, 0.5095519989067516, 0.5950890614040548), (u\'Son Of God\', u\'neutral\', 0.568323158146302, 0.43167684185369803, 0.8816029698242608), (u\'Non-Stop\', u\'neutral\', 0.4316059211657927, 0.5683940788342072, 0.7897784245996508), ...], u\'total\': 116}'
p166
sssS'traceback'
p167
S'Traceback (most recent call last):\n  File "/Users/michaelherman/Documents/RealPython/web2py/start/gluon/restricted.py", line 217, in restricted\n    exec ccode in environment\n  File "/Users/michaelherman/Documents/RealPython/web2py/start/applications/movie_suggest/controllers/default.py", line 34, in <module>\n  File "/Users/michaelherman/Documents/RealPython/web2py/start/gluon/globals.py", line 372, in <lambda>\n    self._caller = lambda f: f()\n  File "/Users/michaelherman/Documents/RealPython/web2py/start/applications/movie_suggest/controllers/default.py", line 16, in grab_movies\n    movies.append(pulse(movie["title"]))\nTypeError: tuple indices must be integers, not str\n'
p168
s.